(dp0
S'METTS MARK'
p1
(dp2
S'to_messages'
p3
I807
sS'deferral_payments'
p4
S'NaN'
p5
sS'ratio_to_poi_email_sent'
p6
F0.0345
sS'expenses'
p7
I94299
sS'poi'
p8
I00
sS'deferred_income'
p9
g5
sS'email_address'
p10
S'mark.metts@enron.com'
p11
sS'long_term_incentive'
p12
g5
sS'restricted_stock_deferred'
p13
g5
sS'shared_receipt_with_poi'
p14
I702
sS'loan_advances'
p15
g5
sS'from_messages'
p16
I29
sS'other'
p17
I1740
sS'director_fees'
p18
g5
sS'ratio_exer_stock_total'
p19
S'NaN'
p20
sS'bonus'
p21
I600000
sS'total_stock_value'
p22
I585062
sS'from_poi_to_this_person'
p23
I38
sS'from_this_person_to_poi'
p24
I1
sS'ratio_from_poi_email_received'
p25
F0.0471
sS'restricted_stock'
p26
I585062
sS'salary'
p27
I365788
sS'total_payments'
p28
I1061827
sS'exercised_stock_options'
p29
g5
ssS'BAXTER JOHN C'
p30
(dp31
g3
g5
sg4
I1295738
sg6
g20
sg7
I11200
sg8
I00
sg9
I-1386055
sg10
g5
sg12
I1586055
sg13
g5
sg14
g5
sg15
g5
sg16
g5
sg17
I2660303
sg18
g5
sg19
F1.1857
sg21
I1200000
sg22
I10623258
sg23
g5
sg24
g5
sg25
g20
sg26
I3942714
sg27
I267102
sg28
I5634343
sg29
I6680544
ssS'ELLIOTT STEVEN'
p32
(dp33
g3
g5
sg4
g5
sg6
g20
sg7
I78552
sg8
I00
sg9
I-400729
sg10
S'steven.elliott@enron.com'
p34
sg12
g5
sg13
g5
sg14
g5
sg15
g5
sg16
g5
sg17
I12961
sg18
g5
sg19
F23.0976
sg21
I350000
sg22
I6678735
sg23
g5
sg24
g5
sg25
g20
sg26
I1788391
sg27
I170941
sg28
I211725
sg29
I4890344
ssS'CORDES WILLIAM R'
p35
(dp36
g3
I764
sg4
g5
sg6
F0.0
sg7
g5
sg8
I00
sg9
g5
sg10
S'bill.cordes@enron.com'
p37
sg12
g5
sg13
g5
sg14
I58
sg15
g5
sg16
I12
sg17
g5
sg18
g5
sg19
g20
sg21
g5
sg22
I1038185
sg23
I10
sg24
I0
sg25
F0.0131
sg26
I386335
sg27
g5
sg28
g5
sg29
I651850
ssS'HANNON KEVIN P'
p38
(dp39
g3
I1045
sg4
g5
sg6
F0.6563
sg7
I34039
sg8
I01
sg9
I-3117011
sg10
S'kevin.hannon@enron.com'
p40
sg12
I1617011
sg13
g5
sg14
I1035
sg15
g5
sg16
I32
sg17
I11350
sg18
g5
sg19
F19.1837
sg21
I1500000
sg22
I6391065
sg23
I32
sg24
I21
sg25
F0.0306
sg26
I853064
sg27
I243293
sg28
I288682
sg29
I5538001
ssS'MORDAUNT KRISTINA M'
p41
(dp42
g3
g5
sg4
g5
sg6
g20
sg7
I35018
sg8
I00
sg9
g5
sg10
S'kristina.mordaunt@enron.com'
p43
sg12
g5
sg13
g5
sg14
g5
sg15
g5
sg16
g5
sg17
I1411
sg18
g5
sg19
g20
sg21
I325000
sg22
I208510
sg23
g5
sg24
g5
sg25
g20
sg26
I208510
sg27
I267093
sg28
I628522
sg29
g5
ssS'MEYER ROCKFORD G'
p44
(dp45
g3
I232
sg4
I1848227
sg6
F0.0
sg7
g5
sg8
I00
sg9
g5
sg10
S'rockford.meyer@enron.com'
p46
sg12
g5
sg13
g5
sg14
I22
sg15
g5
sg16
I28
sg17
g5
sg18
g5
sg19
F0.267
sg21
g5
sg22
I955873
sg23
I0
sg24
I0
sg25
F0.0
sg26
I462384
sg27
g5
sg28
I1848227
sg29
I493489
ssS'MCMAHON JEFFREY'
p47
(dp48
g3
I2355
sg4
g5
sg6
F0.5417
sg7
I137108
sg8
I00
sg9
g5
sg10
S'jeffrey.mcmahon@enron.com'
p49
sg12
I694862
sg13
g5
sg14
I2228
sg15
g5
sg16
I48
sg17
I297353
sg18
g5
sg19
F0.2693
sg21
I2600000
sg22
I1662855
sg23
I58
sg24
I26
sg25
F0.0246
sg26
I558801
sg27
I370448
sg28
I4099771
sg29
I1104054
ssS'HAEDICKE MARK E'
p50
(dp51
g3
I4009
sg4
I2157527
sg6
F0.0314
sg7
I76169
sg8
I00
sg9
I-934484
sg10
S'mark.haedicke@enron.com'
p52
sg12
I983346
sg13
I-329825
sg14
I1847
sg15
g5
sg16
I1941
sg17
I52382
sg18
g5
sg19
F0.1577
sg21
I1150000
sg22
I803094
sg23
I180
sg24
I61
sg25
F0.0449
sg26
I524169
sg27
I374125
sg28
I3859065
sg29
I608750
ssS'PIPER GREGORY F'
p53
(dp54
g3
I1238
sg4
I1130036
sg6
F0.2162
sg7
I43057
sg8
I00
sg9
I-33333
sg10
S'greg.piper@enron.com'
p55
sg12
g5
sg13
I-409554
sg14
I742
sg15
g5
sg16
I222
sg17
I778
sg18
g5
sg19
F0.5066
sg21
I400000
sg22
I880290
sg23
I61
sg24
I48
sg25
F0.0493
sg26
I409554
sg27
I197091
sg28
I1737629
sg29
I880290
ssS'HUMPHREY GENE E'
p56
(dp57
g3
I128
sg4
I2964506
sg6
F1.0
sg7
I4994
sg8
I00
sg9
g5
sg10
S'gene.humphrey@enron.com'
p58
sg12
g5
sg13
g5
sg14
I119
sg15
g5
sg16
I17
sg17
g5
sg18
g5
sg19
F0.7363
sg21
g5
sg22
I2282768
sg23
I10
sg24
I17
sg25
F0.0781
sg26
g5
sg27
I130724
sg28
I3100224
sg29
I2282768
ssS'NOLES JAMES L'
p59
(dp60
g3
g5
sg4
I774401
sg6
g20
sg7
g5
sg8
I00
sg9
g5
sg10
g5
sg12
g5
sg13
I-94556
sg14
g5
sg15
g5
sg16
g5
sg17
g5
sg18
g5
sg19
g20
sg21
g5
sg22
I368705
sg23
g5
sg24
g5
sg25
g20
sg26
I463261
sg27
g5
sg28
I774401
sg29
g5
ssS'BLACHMAN JEREMY M'
p61
(dp62
g3
I2475
sg4
g5
sg6
F0.1429
sg7
I84208
sg8
I00
sg9
g5
sg10
S'jeremy.blachman@enron.com'
p63
sg12
I831809
sg13
g5
sg14
I2326
sg15
g5
sg16
I14
sg17
I272
sg18
g5
sg19
F0.3798
sg21
I850000
sg22
I954354
sg23
I25
sg24
I2
sg25
F0.0101
sg26
I189041
sg27
I248546
sg28
I2014835
sg29
I765313
ssS'SUNDE MARTIN'
p64
(dp65
g3
I2647
sg4
g5
sg6
F0.3421
sg7
g5
sg8
I00
sg9
g5
sg10
S'marty.sunde@enron.com'
p66
sg12
I476451
sg13
g5
sg14
I2565
sg15
g5
sg16
I38
sg17
I111122
sg18
g5
sg19
g20
sg21
I700000
sg22
I698920
sg23
I37
sg24
I13
sg25
F0.014
sg26
I698920
sg27
I257486
sg28
I1545059
sg29
g5
ssS'GIBBS DANA R'
p67
(dp68
g3
I169
sg4
I504610
sg6
F0.0
sg7
g5
sg8
I00
sg9
g5
sg10
S'dana.gibbs@enron.com'
p69
sg12
I461912
sg13
g5
sg14
I23
sg15
g5
sg16
I12
sg17
g5
sg18
g5
sg19
F2.2951
sg21
g5
sg22
I2218275
sg23
I0
sg24
I0
sg25
F0.0
sg26
g5
sg27
g5
sg28
I966522
sg29
I2218275
ssS'LOWRY CHARLES P'
p70
(dp71
g3
g5
sg4
g5
sg6
g20
sg7
g5
sg8
I00
sg9
g5
sg10
g5
sg12
g5
sg13
I-153686
sg14
g5
sg15
g5
sg16
g5
sg17
g5
sg18
g5
sg19
g20
sg21
g5
sg22
I372205
sg23
g5
sg24
g5
sg25
g20
sg26
I153686
sg27
g5
sg28
g5
sg29
I372205
ssS'COLWELL WESLEY'
p72
(dp73
g3
I1758
sg4
I27610
sg6
F0.275
sg7
I16514
sg8
I01
sg9
I-144062
sg10
S'wes.colwell@enron.com'
p74
sg12
g5
sg13
g5
sg14
I1132
sg15
g5
sg16
I40
sg17
I101740
sg18
g5
sg19
g20
sg21
I1200000
sg22
I698242
sg23
I240
sg24
I11
sg25
F0.1365
sg26
I698242
sg27
I288542
sg28
I1490344
sg29
g5
ssS'MULLER MARK S'
p75
(dp76
g3
I136
sg4
I842924
sg6
F0.0
sg7
g5
sg8
I00
sg9
I-719000
sg10
S's..muller@enron.com'
p77
sg12
I1725545
sg13
g5
sg14
I114
sg15
g5
sg16
I16
sg17
I947
sg18
g5
sg19
F0.3299
sg21
I1100000
sg22
I1416848
sg23
I12
sg24
I0
sg25
F0.0882
sg26
I360528
sg27
I251654
sg28
I3202070
sg29
I1056320
ssS'JACKSON CHARLENE R'
p78
(dp79
g3
I258
sg4
g5
sg6
F0.3393
sg7
I10181
sg8
I00
sg9
g5
sg10
S'charlene.jackson@enron.com'
p80
sg12
g5
sg13
g5
sg14
I117
sg15
g5
sg16
I56
sg17
I2435
sg18
g5
sg19
F0.3358
sg21
I250000
sg22
I725735
sg23
I25
sg24
I19
sg25
F0.0969
sg26
I540672
sg27
I288558
sg28
I551174
sg29
I185063
ssS'WESTFAHL RICHARD K'
p81
(dp82
g3
g5
sg4
g5
sg6
g20
sg7
I51870
sg8
I00
sg9
I-10800
sg10
S'dick.westfahl@enron.com'
p83
sg12
I256191
sg13
g5
sg14
g5
sg15
g5
sg16
g5
sg17
I401130
sg18
g5
sg19
g20
sg21
g5
sg22
I384930
sg23
g5
sg24
g5
sg25
g20
sg26
I384930
sg27
I63744
sg28
I762135
sg29
g5
ssS'WALTERS GARETH W'
p84
(dp85
g3
g5
sg4
I53625
sg6
g20
sg7
I33785
sg8
I00
sg9
g5
sg10
g5
sg12
g5
sg13
g5
sg14
g5
sg15
g5
sg16
g5
sg17
g5
sg18
g5
sg19
F11.7873
sg21
g5
sg22
I1030329
sg23
g5
sg24
g5
sg25
g20
sg26
g5
sg27
g5
sg28
I87410
sg29
I1030329
ssS'WALLS JR ROBERT H'
p86
(dp87
g3
I671
sg4
g5
sg6
F0.0
sg7
I50936
sg8
I00
sg9
g5
sg10
S'rob.walls@enron.com'
p88
sg12
I540751
sg13
g5
sg14
I215
sg15
g5
sg16
I146
sg17
I2
sg18
g5
sg19
F2.4164
sg21
I850000
sg22
I5898997
sg23
I17
sg24
I0
sg25
F0.0253
sg26
I1552453
sg27
I357091
sg28
I1798780
sg29
I4346544
ssS'KITCHEN LOUISE'
p89
(dp90
g3
I8305
sg4
g5
sg6
F0.1123
sg7
I5774
sg8
I00
sg9
g5
sg10
S'louise.kitchen@enron.com'
p91
sg12
g5
sg13
g5
sg14
I3669
sg15
g5
sg16
I1728
sg17
I93925
sg18
g5
sg19
F0.0233
sg21
I3100000
sg22
I547143
sg23
I251
sg24
I194
sg25
F0.0302
sg26
I466101
sg27
I271442
sg28
I3471141
sg29
I81042
ssS'CHAN RONNIE'
p92
(dp93
g3
g5
sg4
g5
sg6
g20
sg7
g5
sg8
I00
sg9
I-98784
sg10
g5
sg12
g5
sg13
I-32460
sg14
g5
sg15
g5
sg16
g5
sg17
g5
sg18
I98784
sg19
g20
sg21
g5
sg22
g5
sg23
g5
sg24
g5
sg25
g20
sg26
I32460
sg27
g5
sg28
g5
sg29
g5
ssS'BELFER ROBERT'
p94
(dp95
g3
g5
sg4
I-102500
sg6
g20
sg7
g5
sg8
I00
sg9
g5
sg10
g5
sg12
g5
sg13
I44093
sg14
g5
sg15
g5
sg16
g5
sg17
g5
sg18
I3285
sg19
F0.032
sg21
g5
sg22
I-44093
sg23
g5
sg24
g5
sg25
g20
sg26
g5
sg27
g5
sg28
I102500
sg29
I3285
ssS'SHANKMAN JEFFREY A'
p96
(dp97
g3
I3221
sg4
g5
sg6
F0.031
sg7
I178979
sg8
I00
sg9
g5
sg10
S'jeffrey.shankman@enron.com'
p98
sg12
I554422
sg13
g5
sg14
I1730
sg15
g5
sg16
I2681
sg17
I1191
sg18
g5
sg19
F0.4745
sg21
I2000000
sg22
I2072035
sg23
I94
sg24
I83
sg25
F0.0292
sg26
I630137
sg27
I304110
sg28
I3038702
sg29
I1441898
ssS'WODRASKA JOHN'
p99
(dp100
g3
g5
sg4
g5
sg6
g20
sg7
g5
sg8
I00
sg9
g5
sg10
S'john.wodraska@enron.com'
p101
sg12
g5
sg13
g5
sg14
g5
sg15
g5
sg16
g5
sg17
I189583
sg18
g5
sg19
g20
sg21
g5
sg22
g5
sg23
g5
sg24
g5
sg25
g20
sg26
g5
sg27
g5
sg28
I189583
sg29
g5
ssS'BERGSIEKER RICHARD P'
p102
(dp103
g3
I383
sg4
g5
sg6
F0.0
sg7
I59175
sg8
I00
sg9
I-485813
sg10
S'rick.bergsieker@enron.com'
p104
sg12
I180250
sg13
g5
sg14
I233
sg15
g5
sg16
I59
sg17
I427316
sg18
g5
sg19
g20
sg21
I250000
sg22
I659249
sg23
I4
sg24
I0
sg25
F0.0104
sg26
I659249
sg27
I187922
sg28
I618850
sg29
g5
ssS'URQUHART JOHN A'
p105
(dp106
g3
g5
sg4
g5
sg6
g20
sg7
I228656
sg8
I00
sg9
I-36666
sg10
g5
sg12
g5
sg13
g5
sg14
g5
sg15
g5
sg16
g5
sg17
g5
sg18
I36666
sg19
g20
sg21
g5
sg22
g5
sg23
g5
sg24
g5
sg25
g20
sg26
g5
sg27
g5
sg28
I228656
sg29
g5
ssS'BIBI PHILIPPE A'
p107
(dp108
g3
I1607
sg4
g5
sg6
F0.2
sg7
I38559
sg8
I00
sg9
g5
sg10
S'philippe.bibi@enron.com'
p109
sg12
I369721
sg13
g5
sg14
I1336
sg15
g5
sg16
I40
sg17
I425688
sg18
g5
sg19
F0.7158
sg21
I1000000
sg22
I1843816
sg23
I23
sg24
I8
sg25
F0.0143
sg26
I378082
sg27
I213625
sg28
I2047593
sg29
I1465734
ssS'RIEKER PAULA H'
p110
(dp111
g3
I1328
sg4
I214678
sg6
F0.5854
sg7
I33271
sg8
I01
sg9
I-100000
sg10
S'paula.rieker@enron.com'
p112
sg12
g5
sg13
g5
sg14
I1258
sg15
g5
sg16
I82
sg17
I1950
sg18
g5
sg19
F1.4878
sg21
I700000
sg22
I1918887
sg23
I35
sg24
I48
sg25
F0.0264
sg26
I283649
sg27
I249201
sg28
I1099100
sg29
I1635238
ssS'WHALEY DAVID A'
p113
(dp114
g3
g5
sg4
g5
sg6
g20
sg7
g5
sg8
I00
sg9
g5
sg10
g5
sg12
g5
sg13
g5
sg14
g5
sg15
g5
sg16
g5
sg17
g5
sg18
g5
sg19
g20
sg21
g5
sg22
I98718
sg23
g5
sg24
g5
sg25
g20
sg26
g5
sg27
g5
sg28
g5
sg29
I98718
ssS'BECK SALLY W'
p115
(dp116
g3
I7315
sg4
g5
sg6
F0.0889
sg7
I37172
sg8
I00
sg9
g5
sg10
S'sally.beck@enron.com'
p117
sg12
g5
sg13
g5
sg14
I2639
sg15
g5
sg16
I4343
sg17
I566
sg18
g5
sg19
g20
sg21
I700000
sg22
I126027
sg23
I144
sg24
I386
sg25
F0.0197
sg26
I126027
sg27
I231330
sg28
I969068
sg29
g5
ssS'HAUG DAVID L'
p118
(dp119
g3
I573
sg4
g5
sg6
F0.3684
sg7
I475
sg8
I00
sg9
g5
sg10
S'david.haug@enron.com'
p120
sg12
g5
sg13
g5
sg14
I471
sg15
g5
sg16
I19
sg17
g5
sg18
g5
sg19
g20
sg21
g5
sg22
I2217299
sg23
I4
sg24
I7
sg25
F0.007
sg26
I2217299
sg27
g5
sg28
I475
sg29
g5
ssS'ECHOLS JOHN B'
p121
(dp122
g3
g5
sg4
g5
sg6
g20
sg7
I21530
sg8
I00
sg9
g5
sg10
S'john.echols@enron.com'
p123
sg12
I2234774
sg13
g5
sg14
g5
sg15
g5
sg16
g5
sg17
I53775
sg18
g5
sg19
F0.2234
sg21
I200000
sg22
I1008941
sg23
g5
sg24
g5
sg25
g20
sg26
I407503
sg27
I182245
sg28
I2692324
sg29
I601438
ssS'MENDELSOHN JOHN'
p124
(dp125
g3
g5
sg4
g5
sg6
g20
sg7
I148
sg8
I00
sg9
I-103750
sg10
g5
sg12
g5
sg13
g5
sg14
g5
sg15
g5
sg16
g5
sg17
g5
sg18
I103750
sg19
g20
sg21
g5
sg22
g5
sg23
g5
sg24
g5
sg25
g20
sg26
g5
sg27
g5
sg28
I148
sg29
g5
ssS'HICKERSON GARY J'
p126
(dp127
g3
I1320
sg4
g5
sg6
F0.037
sg7
I98849
sg8
I00
sg9
g5
sg10
S'gary.hickerson@enron.com'
p128
sg12
I69223
sg13
g5
sg14
I900
sg15
g5
sg16
I27
sg17
I1936
sg18
g5
sg19
g20
sg21
I1700000
sg22
I441096
sg23
I40
sg24
I1
sg25
F0.0303
sg26
I441096
sg27
I211788
sg28
I2081796
sg29
g5
ssS'CLINE KENNETH W'
p129
(dp130
g3
g5
sg4
g5
sg6
g20
sg7
g5
sg8
I00
sg9
g5
sg10
g5
sg12
g5
sg13
I-472568
sg14
g5
sg15
g5
sg16
g5
sg17
g5
sg18
g5
sg19
g20
sg21
g5
sg22
I189518
sg23
g5
sg24
g5
sg25
g20
sg26
I662086
sg27
g5
sg28
g5
sg29
g5
ssS'LEWIS RICHARD'
p131
(dp132
g3
I952
sg4
g5
sg6
F0.0
sg7
g5
sg8
I00
sg9
g5
sg10
S'richard.lewis@enron.com'
p133
sg12
g5
sg13
g5
sg14
I739
sg15
g5
sg16
I26
sg17
g5
sg18
g5
sg19
g20
sg21
g5
sg22
I850477
sg23
I10
sg24
I0
sg25
F0.0105
sg26
g5
sg27
g5
sg28
g5
sg29
I850477
ssS'HAYES ROBERT E'
p134
(dp135
g3
I504
sg4
I7961
sg6
F0.0
sg7
g5
sg8
I00
sg9
g5
sg10
S'robert.hayes@enron.com'
p136
sg12
g5
sg13
g5
sg14
I50
sg15
g5
sg16
I12
sg17
g5
sg18
g5
sg19
g20
sg21
g5
sg22
I151418
sg23
I16
sg24
I0
sg25
F0.0317
sg26
I151418
sg27
g5
sg28
I7961
sg29
g5
ssS'KOPPER MICHAEL J'
p137
(dp138
g3
g5
sg4
g5
sg6
g20
sg7
I118134
sg8
I01
sg9
g5
sg10
S'michael.kopper@enron.com'
p139
sg12
I602671
sg13
g5
sg14
g5
sg15
g5
sg16
g5
sg17
I907502
sg18
g5
sg19
g20
sg21
I800000
sg22
I985032
sg23
g5
sg24
g5
sg25
g20
sg26
I985032
sg27
I224305
sg28
I2652612
sg29
g5
ssS'LEFF DANIEL P'
p140
(dp141
g3
I2822
sg4
g5
sg6
F0.2222
sg7
g5
sg8
I00
sg9
g5
sg10
S'dan.leff@enron.com'
p142
sg12
I1387399
sg13
g5
sg14
I2672
sg15
g5
sg16
I63
sg17
I3083
sg18
g5
sg19
g20
sg21
I1000000
sg22
I360528
sg23
I67
sg24
I14
sg25
F0.0237
sg26
I360528
sg27
I273746
sg28
I2664228
sg29
g5
ssS'LAVORATO JOHN J'
p143
(dp144
g3
I7259
sg4
g5
sg6
F0.159
sg7
I49537
sg8
I00
sg9
g5
sg10
S'john.lavorato@enron.com'
p145
sg12
I2035380
sg13
g5
sg14
I3962
sg15
g5
sg16
I2585
sg17
I1552
sg18
g5
sg19
F0.3989
sg21
I8000000
sg22
I5167144
sg23
I528
sg24
I411
sg25
F0.0727
sg26
I1008149
sg27
I339288
sg28
I10425757
sg29
I4158995
ssS'BERBERIAN DAVID'
p146
(dp147
g3
g5
sg4
g5
sg6
g20
sg7
I11892
sg8
I00
sg9
g5
sg10
S'david.berberian@enron.com'
p148
sg12
g5
sg13
g5
sg14
g5
sg15
g5
sg16
g5
sg17
g5
sg18
g5
sg19
F7.1098
sg21
g5
sg22
I2493616
sg23
g5
sg24
g5
sg25
g20
sg26
I869220
sg27
I216582
sg28
I228474
sg29
I1624396
ssS'DETMERING TIMOTHY J'
p149
(dp150
g3
g5
sg4
I875307
sg6
g20
sg7
I52255
sg8
I00
sg9
I-775241
sg10
S'timothy.detmering@enron.com'
p151
sg12
I415657
sg13
I-315068
sg14
g5
sg15
g5
sg16
g5
sg17
I1105
sg18
g5
sg19
F1.6835
sg21
I425000
sg22
I2027865
sg23
g5
sg24
g5
sg25
g20
sg26
I315068
sg27
I210500
sg28
I1204583
sg29
I2027865
ssS'WAKEHAM JOHN'
p152
(dp153
g3
g5
sg4
g5
sg6
g20
sg7
I103773
sg8
I00
sg9
g5
sg10
g5
sg12
g5
sg13
g5
sg14
g5
sg15
g5
sg16
g5
sg17
g5
sg18
I109298
sg19
g20
sg21
g5
sg22
g5
sg23
g5
sg24
g5
sg25
g20
sg26
g5
sg27
g5
sg28
I213071
sg29
g5
ssS'POWERS WILLIAM'
p154
(dp155
g3
I653
sg4
g5
sg6
F0.0
sg7
g5
sg8
I00
sg9
I-17500
sg10
S'ken.powers@enron.com'
p156
sg12
g5
sg13
g5
sg14
I12
sg15
g5
sg16
I26
sg17
g5
sg18
I17500
sg19
g20
sg21
g5
sg22
g5
sg23
I0
sg24
I0
sg25
F0.0
sg26
g5
sg27
g5
sg28
g5
sg29
g5
ssS'GOLD JOSEPH'
p157
(dp158
g3
g5
sg4
g5
sg6
g20
sg7
g5
sg8
I00
sg9
g5
sg10
S'joe.gold@enron.com'
p159
sg12
I304805
sg13
g5
sg14
g5
sg15
g5
sg16
g5
sg17
I819288
sg18
g5
sg19
F0.2033
sg21
I750000
sg22
I877611
sg23
g5
sg24
g5
sg25
g20
sg26
I441096
sg27
I272880
sg28
I2146973
sg29
I436515
ssS'BANNANTINE JAMES M'
p160
(dp161
g3
I566
sg4
g5
sg6
F0.0
sg7
I56301
sg8
I00
sg9
I-5104
sg10
S'james.bannantine@enron.com'
p162
sg12
g5
sg13
I-560222
sg14
I465
sg15
g5
sg16
I29
sg17
I864523
sg18
g5
sg19
F4.4163
sg21
g5
sg22
I5243487
sg23
I39
sg24
I0
sg25
F0.0689
sg26
I1757552
sg27
I477
sg28
I916197
sg29
I4046157
ssS'DUNCAN JOHN H'
p163
(dp164
g3
g5
sg4
g5
sg6
g20
sg7
g5
sg8
I00
sg9
I-25000
sg10
g5
sg12
g5
sg13
g5
sg14
g5
sg15
g5
sg16
g5
sg17
g5
sg18
I102492
sg19
F4.7973
sg21
g5
sg22
I371750
sg23
g5
sg24
g5
sg25
g20
sg26
g5
sg27
g5
sg28
I77492
sg29
I371750
ssS'SHAPIRO RICHARD S'
p165
(dp166
g3
I15149
sg4
g5
sg6
F0.0535
sg7
I137767
sg8
I00
sg9
g5
sg10
S'richard.shapiro@enron.com'
p167
sg12
g5
sg13
g5
sg14
I4527
sg15
g5
sg16
I1215
sg17
I705
sg18
g5
sg19
F0.5748
sg21
I650000
sg22
I987001
sg23
I74
sg24
I65
sg25
F0.0049
sg26
I379164
sg27
I269076
sg28
I1057548
sg29
I607837
ssS'SHERRIFF JOHN R'
p168
(dp169
g3
I3187
sg4
g5
sg6
F0.25
sg7
g5
sg8
I00
sg9
g5
sg10
S'john.sherriff@enron.com'
p170
sg12
I554422
sg13
g5
sg14
I2103
sg15
g5
sg16
I92
sg17
I1852186
sg18
g5
sg19
F0.4234
sg21
I1500000
sg22
I3128982
sg23
I28
sg24
I23
sg25
F0.0088
sg26
I1293424
sg27
I428780
sg28
I4335388
sg29
I1835558
ssS'SHELBY REX'
p171
(dp172
g3
I225
sg4
g5
sg6
F0.359
sg7
I22884
sg8
I01
sg9
I-4167
sg10
S'rex.shelby@enron.com'
p173
sg12
g5
sg13
g5
sg14
I91
sg15
g5
sg16
I39
sg17
I1573324
sg18
g5
sg19
F0.8106
sg21
I200000
sg22
I2493616
sg23
I13
sg24
I14
sg25
F0.0578
sg26
I869220
sg27
I211844
sg28
I2003885
sg29
I1624396
ssS'LEMAISTRE CHARLES'
p174
(dp175
g3
g5
sg4
g5
sg6
g20
sg7
g5
sg8
I00
sg9
I-25000
sg10
g5
sg12
g5
sg13
g5
sg14
g5
sg15
g5
sg16
g5
sg17
g5
sg18
I112492
sg19
F4.719
sg21
g5
sg22
I412878
sg23
g5
sg24
g5
sg25
g20
sg26
g5
sg27
g5
sg28
I87492
sg29
I412878
ssS'DEFFNER JOSEPH M'
p176
(dp177
g3
I714
sg4
g5
sg6
F0.0541
sg7
I41626
sg8
I00
sg9
g5
sg10
S'joseph.deffner@enron.com'
p178
sg12
I335349
sg13
g5
sg14
I552
sg15
g5
sg16
I74
sg17
I25553
sg18
g5
sg19
F0.0144
sg21
I600000
sg22
I159211
sg23
I115
sg24
I4
sg25
F0.1611
sg26
I141833
sg27
I206121
sg28
I1208649
sg29
I17378
ssS'KISHKILL JOSEPH G'
p179
(dp180
g3
g5
sg4
g5
sg6
g20
sg7
I116335
sg8
I00
sg9
I-51042
sg10
S'joe.kishkill@enron.com'
p181
sg12
g5
sg13
g5
sg14
g5
sg15
g5
sg16
g5
sg17
I465357
sg18
g5
sg19
g20
sg21
g5
sg22
I1034346
sg23
g5
sg24
g5
sg25
g20
sg26
I1034346
sg27
I174246
sg28
I704896
sg29
g5
ssS'WHALLEY LAWRENCE G'
p182
(dp183
g3
I6019
sg4
g5
sg6
F0.0432
sg7
I57838
sg8
I00
sg9
g5
sg10
S'greg.whalley@enron.com'
p184
sg12
I808346
sg13
g5
sg14
I3920
sg15
g5
sg16
I556
sg17
I301026
sg18
g5
sg19
F0.7019
sg21
I3000000
sg22
I6079137
sg23
I186
sg24
I24
sg25
F0.0309
sg26
I2796177
sg27
I510364
sg28
I4677574
sg29
I3282960
ssS'PIRO JIM'
p185
(dp186
g3
I58
sg4
g5
sg6
F0.0625
sg7
g5
sg8
I00
sg9
g5
sg10
S'jim.piro@enron.com'
p187
sg12
g5
sg13
g5
sg14
I3
sg15
g5
sg16
I16
sg17
g5
sg18
g5
sg19
g20
sg21
g5
sg22
I47304
sg23
I0
sg24
I1
sg25
F0.0
sg26
I47304
sg27
g5
sg28
g5
sg29
g5
ssS'MCCONNELL MICHAEL S'
p188
(dp189
g3
I3329
sg4
g5
sg6
F0.0708
sg7
I81364
sg8
I00
sg9
g5
sg10
S'mike.mcconnell@enron.com'
p190
sg12
I554422
sg13
g5
sg14
I2189
sg15
g5
sg16
I2742
sg17
I540
sg18
g5
sg19
F0.7724
sg21
I1100000
sg22
I3101279
sg23
I92
sg24
I194
sg25
F0.0276
sg26
I1478269
sg27
I365038
sg28
I2101364
sg29
I1623010
ssS'DELAINEY DAVID W'
p191
(dp192
g3
I3093
sg4
g5
sg6
F0.1984
sg7
I86174
sg8
I01
sg9
g5
sg10
S'david.delainey@enron.com'
p193
sg12
I1294981
sg13
g5
sg14
I2097
sg15
g5
sg16
I3069
sg17
I1661
sg18
g5
sg19
F0.4825
sg21
I3000000
sg22
I3614261
sg23
I66
sg24
I609
sg25
F0.0213
sg26
I1323148
sg27
I365163
sg28
I4747979
sg29
I2291113
ssS'SULLIVAN-SHAKLOVITZ COLLEEN'
p194
(dp195
g3
g5
sg4
I181993
sg6
g20
sg7
g5
sg8
I00
sg9
g5
sg10
g5
sg12
I554422
sg13
g5
sg14
g5
sg15
g5
sg16
g5
sg17
I162
sg18
g5
sg19
F1.3633
sg21
I100000
sg22
I1362375
sg23
g5
sg24
g5
sg25
g20
sg26
g5
sg27
I162779
sg28
I999356
sg29
I1362375
ssS'WROBEL BRUCE'
p196
(dp197
g3
g5
sg4
g5
sg6
g20
sg7
g5
sg8
I00
sg9
g5
sg10
g5
sg12
g5
sg13
g5
sg14
g5
sg15
g5
sg16
g5
sg17
g5
sg18
g5
sg19
g20
sg21
g5
sg22
I139130
sg23
g5
sg24
g5
sg25
g20
sg26
g5
sg27
g5
sg28
g5
sg29
I139130
ssS'LINDHOLM TOD A'
p198
(dp199
g3
g5
sg4
I204075
sg6
g20
sg7
I57727
sg8
I00
sg9
g5
sg10
S'tod.lindholm@enron.com'
p200
sg12
I175000
sg13
g5
sg14
g5
sg15
g5
sg16
g5
sg17
I2630
sg18
g5
sg19
F2.9106
sg21
I200000
sg22
I3064208
sg23
g5
sg24
g5
sg25
g20
sg26
I514847
sg27
I236457
sg28
I875889
sg29
I2549361
ssS'MEYER JEROME J'
p201
(dp202
g3
g5
sg4
g5
sg6
g20
sg7
I2151
sg8
I00
sg9
I-38346
sg10
g5
sg12
g5
sg13
g5
sg14
g5
sg15
g5
sg16
g5
sg17
g5
sg18
I38346
sg19
g20
sg21
g5
sg22
g5
sg23
g5
sg24
g5
sg25
g20
sg26
g5
sg27
g5
sg28
I2151
sg29
g5
ssS'LAY KENNETH L'
p203
(dp204
g3
I4273
sg4
I202911
sg6
F0.4444
sg7
I99832
sg8
I01
sg9
I-300000
sg10
S'kenneth.lay@enron.com'
p205
sg12
I3600000
sg13
g5
sg14
I2411
sg15
I81525000
sg16
I36
sg17
I10359729
sg18
g5
sg19
F0.3317
sg21
I7000000
sg22
I49110078
sg23
I123
sg24
I16
sg25
F0.0288
sg26
I14761694
sg27
I1072321
sg28
I103559793
sg29
I34348384
ssS'BUTTS ROBERT H'
p206
(dp207
g3
g5
sg4
g5
sg6
g20
sg7
I9410
sg8
I00
sg9
I-75000
sg10
S'bob.butts@enron.com'
p208
sg12
I175000
sg13
g5
sg14
g5
sg15
g5
sg16
g5
sg17
I150656
sg18
g5
sg19
g20
sg21
I750000
sg22
I417619
sg23
g5
sg24
g5
sg25
g20
sg26
I417619
sg27
I261516
sg28
I1271582
sg29
g5
ssS'OLSON CINDY K'
p209
(dp210
g3
I1184
sg4
I77716
sg6
F0.2885
sg7
I63791
sg8
I00
sg9
g5
sg10
S'cindy.olson@enron.com'
p211
sg12
I100000
sg13
g5
sg14
I856
sg15
g5
sg16
I52
sg17
I972
sg18
g5
sg19
F1.2387
sg21
I750000
sg22
I2606763
sg23
I20
sg24
I15
sg25
F0.0169
sg26
I969729
sg27
I329078
sg28
I1321557
sg29
I1637034
ssS'MCDONALD REBECCA'
p212
(dp213
g3
I894
sg4
g5
sg6
F0.0769
sg7
g5
sg8
I00
sg9
g5
sg10
S'rebecca.mcdonald@enron.com'
p214
sg12
g5
sg13
g5
sg14
I720
sg15
g5
sg16
I13
sg17
g5
sg18
g5
sg19
g20
sg21
g5
sg22
I1691366
sg23
I54
sg24
I1
sg25
F0.0604
sg26
I934065
sg27
g5
sg28
g5
sg29
I757301
ssS'CUMBERLAND MICHAEL S'
p215
(dp216
g3
g5
sg4
g5
sg6
g20
sg7
I22344
sg8
I00
sg9
g5
sg10
g5
sg12
I275000
sg13
g5
sg14
g5
sg15
g5
sg16
g5
sg17
I713
sg18
g5
sg19
g20
sg21
I325000
sg22
I207940
sg23
g5
sg24
g5
sg25
g20
sg26
I207940
sg27
I184899
sg28
I807956
sg29
g5
ssS'GAHN ROBERT S'
p217
(dp218
g3
g5
sg4
I73122
sg6
g20
sg7
I50080
sg8
I00
sg9
I-1042
sg10
g5
sg12
g5
sg13
g5
sg14
g5
sg15
g5
sg16
g5
sg17
I76547
sg18
g5
sg19
F0.0924
sg21
I509870
sg22
I318607
sg23
g5
sg24
g5
sg25
g20
sg26
I235370
sg27
I192008
sg28
I900585
sg29
I83237
ssS'BADUM JAMES P'
p219
(dp220
g3
g5
sg4
I178980
sg6
g20
sg7
I3486
sg8
I00
sg9
g5
sg10
g5
sg12
g5
sg13
g5
sg14
g5
sg15
g5
sg16
g5
sg17
g5
sg18
g5
sg19
F1.413
sg21
g5
sg22
I257817
sg23
g5
sg24
g5
sg25
g20
sg26
g5
sg27
g5
sg28
I182466
sg29
I257817
ssS'HERMANN ROBERT J'
p221
(dp222
g3
g5
sg4
g5
sg6
g20
sg7
I48357
sg8
I00
sg9
I-280000
sg10
S'robert.hermann@enron.com'
p223
sg12
I150000
sg13
g5
sg14
g5
sg15
g5
sg16
g5
sg17
I416441
sg18
g5
sg19
F0.1445
sg21
I700000
sg22
I668132
sg23
g5
sg24
g5
sg25
g20
sg26
I480632
sg27
I262663
sg28
I1297461
sg29
I187500
ssS'FALLON JAMES B'
p224
(dp225
g3
I1755
sg4
g5
sg6
F0.4933
sg7
I95924
sg8
I00
sg9
g5
sg10
S'jim.fallon@enron.com'
p226
sg12
I374347
sg13
g5
sg14
I1604
sg15
g5
sg16
I75
sg17
I401481
sg18
g5
sg19
F0.2558
sg21
I2500000
sg22
I2332399
sg23
I42
sg24
I37
sg25
F0.0239
sg26
I1392142
sg27
I304588
sg28
I3676340
sg29
I940257
ssS'GATHMANN WILLIAM D'
p227
(dp228
g3
g5
sg4
g5
sg6
g20
sg7
g5
sg8
I00
sg9
g5
sg10
g5
sg12
g5
sg13
I-72419
sg14
g5
sg15
g5
sg16
g5
sg17
g5
sg18
g5
sg19
g20
sg21
g5
sg22
I1945360
sg23
g5
sg24
g5
sg25
g20
sg26
I264013
sg27
g5
sg28
g5
sg29
I1753766
ssS'HORTON STANLEY C'
p229
(dp230
g3
I2350
sg4
I3131860
sg6
F0.014
sg7
g5
sg8
I00
sg9
g5
sg10
S'stanley.horton@enron.com'
p231
sg12
g5
sg13
g5
sg14
I1074
sg15
g5
sg16
I1073
sg17
g5
sg18
g5
sg19
F1.6637
sg21
g5
sg22
I7256648
sg23
I44
sg24
I15
sg25
F0.0187
sg26
I2046079
sg27
g5
sg28
I3131860
sg29
I5210569
ssS'BOWEN JR RAYMOND M'
p232
(dp233
g3
I1858
sg4
g5
sg6
F0.5556
sg7
I65907
sg8
I01
sg9
I-833
sg10
S'raymond.bowen@enron.com'
p234
sg12
I974293
sg13
g5
sg14
I1593
sg15
g5
sg16
I27
sg17
I1621
sg18
g5
sg19
g20
sg21
I1350000
sg22
I252055
sg23
I140
sg24
I15
sg25
F0.0753
sg26
I252055
sg27
I278601
sg28
I2669589
sg29
g5
ssS'GILLIS JOHN'
p235
(dp236
g3
g5
sg4
g5
sg6
g20
sg7
g5
sg8
I00
sg9
g5
sg10
g5
sg12
g5
sg13
g5
sg14
g5
sg15
g5
sg16
g5
sg17
g5
sg18
g5
sg19
g20
sg21
g5
sg22
I85641
sg23
g5
sg24
g5
sg25
g20
sg26
I75838
sg27
g5
sg28
g5
sg29
I9803
ssS'FITZGERALD JAY L'
p237
(dp238
g3
I936
sg4
g5
sg6
F0.5
sg7
I23870
sg8
I00
sg9
g5
sg10
S'jay.fitzgerald@enron.com'
p239
sg12
I556416
sg13
g5
sg14
I723
sg15
g5
sg16
I16
sg17
I285414
sg18
g5
sg19
F0.4696
sg21
I350000
sg22
I1621236
sg23
I1
sg24
I8
sg25
F0.0011
sg26
I956775
sg27
I199157
sg28
I1414857
sg29
I664461
ssS'MORAN MICHAEL P'
p240
(dp241
g3
I672
sg4
g5
sg6
F0.0
sg7
g5
sg8
I00
sg9
g5
sg10
S'michael.moran@enron.com'
p242
sg12
g5
sg13
g5
sg14
I127
sg15
g5
sg16
I19
sg17
g5
sg18
g5
sg19
g20
sg21
g5
sg22
I221141
sg23
I0
sg24
I0
sg25
F0.0
sg26
I161602
sg27
g5
sg28
g5
sg29
I59539
ssS'REDMOND BRIAN L'
p243
(dp244
g3
I1671
sg4
g5
sg6
F0.2217
sg7
I14689
sg8
I00
sg9
g5
sg10
S'brian.redmond@enron.com'
p245
sg12
g5
sg13
g5
sg14
I1063
sg15
g5
sg16
I221
sg17
g5
sg18
g5
sg19
F67.3281
sg21
g5
sg22
I7890324
sg23
I204
sg24
I49
sg25
F0.1221
sg26
I381285
sg27
I96840
sg28
I111529
sg29
I7509039
ssS'BAZELIDES PHILIP J'
p246
(dp247
g3
g5
sg4
I684694
sg6
g20
sg7
g5
sg8
I00
sg9
g5
sg10
g5
sg12
I93750
sg13
g5
sg14
g5
sg15
g5
sg16
g5
sg17
I874
sg18
g5
sg19
F1.8598
sg21
g5
sg22
I1599641
sg23
g5
sg24
g5
sg25
g20
sg26
g5
sg27
I80818
sg28
I860136
sg29
I1599641
ssS'BELDEN TIMOTHY N'
p248
(dp249
g3
I7991
sg4
I2144013
sg6
F0.2231
sg7
I17355
sg8
I01
sg9
I-2334434
sg10
S'tim.belden@enron.com'
p250
sg12
g5
sg13
g5
sg14
I5521
sg15
g5
sg16
I484
sg17
I210698
sg18
g5
sg19
F0.1732
sg21
I5249999
sg22
I1110705
sg23
I228
sg24
I108
sg25
F0.0285
sg26
I157569
sg27
I213999
sg28
I5501630
sg29
I953136
ssS'DIMICHELE RICHARD G'
p251
(dp252
g3
g5
sg4
g5
sg6
g20
sg7
I35812
sg8
I00
sg9
g5
sg10
S'richard.dimichele@enron.com'
p253
sg12
I694862
sg13
g5
sg14
g5
sg15
g5
sg16
g5
sg17
I374689
sg18
g5
sg19
F3.4591
sg21
I1000000
sg22
I8317782
sg23
g5
sg24
g5
sg25
g20
sg26
I126027
sg27
I262788
sg28
I2368151
sg29
I8191755
ssS'DURAN WILLIAM D'
p254
(dp255
g3
I904
sg4
g5
sg6
F0.25
sg7
I25785
sg8
I00
sg9
g5
sg10
S'w.duran@enron.com'
p256
sg12
I1105218
sg13
g5
sg14
I599
sg15
g5
sg16
I12
sg17
I1568
sg18
g5
sg19
F0.6936
sg21
I750000
sg22
I1640910
sg23
I106
sg24
I3
sg25
F0.1173
sg26
I189041
sg27
I210692
sg28
I2093263
sg29
I1451869
ssS'THORN TERENCE H'
p257
(dp258
g3
I266
sg4
I16586
sg6
F0.0
sg7
I46145
sg8
I00
sg9
g5
sg10
S'terence.thorn@enron.com'
p259
sg12
I200000
sg13
g5
sg14
I73
sg15
g5
sg16
I41
sg17
I426629
sg18
g5
sg19
F4.885
sg21
g5
sg22
I4817796
sg23
I0
sg24
I0
sg25
F0.0
sg26
I365320
sg27
I222093
sg28
I911453
sg29
I4452476
ssS'FASTOW ANDREW S'
p260
(dp261
g3
g5
sg4
g5
sg6
g20
sg7
I55921
sg8
I01
sg9
I-1386055
sg10
S'andrew.fastow@enron.com'
p262
sg12
I1736055
sg13
g5
sg14
g5
sg15
g5
sg16
g5
sg17
I277464
sg18
g5
sg19
g20
sg21
I1300000
sg22
I1794412
sg23
g5
sg24
g5
sg25
g20
sg26
I1794412
sg27
I440698
sg28
I2424083
sg29
g5
ssS'FOY JOE'
p263
(dp264
g3
I57
sg4
I181755
sg6
F0.0
sg7
g5
sg8
I00
sg9
g5
sg10
S'tracy.foy@enron.com'
p265
sg12
g5
sg13
g5
sg14
I2
sg15
g5
sg16
I13
sg17
g5
sg18
g5
sg19
F1.8895
sg21
g5
sg22
I343434
sg23
I0
sg24
I0
sg25
F0.0
sg26
g5
sg27
g5
sg28
I181755
sg29
I343434
ssS'CALGER CHRISTOPHER F'
p266
(dp267
g3
I2598
sg4
g5
sg6
F0.1736
sg7
I35818
sg8
I01
sg9
I-262500
sg10
S'christopher.calger@enron.com'
p268
sg12
I375304
sg13
g5
sg14
I2188
sg15
g5
sg16
I144
sg17
I486
sg18
g5
sg19
g20
sg21
I1250000
sg22
I126027
sg23
I199
sg24
I25
sg25
F0.0766
sg26
I126027
sg27
I240189
sg28
I1639297
sg29
g5
ssS'RICE KENNETH D'
p269
(dp270
g3
I905
sg4
g5
sg6
F0.2222
sg7
I46950
sg8
I01
sg9
I-3504386
sg10
S'ken.rice@enron.com'
p271
sg12
I1617011
sg13
g5
sg14
I864
sg15
g5
sg16
I18
sg17
I174839
sg18
g5
sg19
F39.1925
sg21
I1750000
sg22
I22542539
sg23
I42
sg24
I4
sg25
F0.0464
sg26
I2748364
sg27
I420636
sg28
I505050
sg29
I19794175
ssS'KAMINSKI WINCENTY J'
p272
(dp273
g3
I4607
sg4
g5
sg6
F0.0119
sg7
I83585
sg8
I00
sg9
g5
sg10
S'vince.kaminski@enron.com'
p274
sg12
I323466
sg13
g5
sg14
I583
sg15
g5
sg16
I14368
sg17
I4669
sg18
g5
sg19
F0.7821
sg21
I400000
sg22
I976037
sg23
I41
sg24
I171
sg25
F0.0089
sg26
I126027
sg27
I275101
sg28
I1086821
sg29
I850010
ssS'COX DAVID'
p275
(dp276
g3
I102
sg4
g5
sg6
F0.1212
sg7
I27861
sg8
I00
sg9
I-41250
sg10
S'chip.cox@enron.com'
p277
sg12
g5
sg13
g5
sg14
I71
sg15
g5
sg16
I33
sg17
I494
sg18
g5
sg19
F0.1067
sg21
I800000
sg22
I495633
sg23
I0
sg24
I4
sg25
F0.0
sg26
I378082
sg27
I314288
sg28
I1101393
sg29
I117551
ssS'OVERDYKE JR JERE C'
p278
(dp279
g3
g5
sg4
g5
sg6
g20
sg7
I18834
sg8
I00
sg9
g5
sg10
S'jere.overdyke@enron.com'
p280
sg12
I135836
sg13
g5
sg14
g5
sg15
g5
sg16
g5
sg17
I176
sg18
g5
sg19
F21.0843
sg21
g5
sg22
I7307594
sg23
g5
sg24
g5
sg25
g20
sg26
I2041016
sg27
I94941
sg28
I249787
sg29
I5266578
ssS'PEREIRA PAULO V. FERRAZ'
p281
(dp282
g3
g5
sg4
g5
sg6
g20
sg7
I27942
sg8
I00
sg9
I-101250
sg10
g5
sg12
g5
sg13
g5
sg14
g5
sg15
g5
sg16
g5
sg17
g5
sg18
I101250
sg19
g20
sg21
g5
sg22
g5
sg23
g5
sg24
g5
sg25
g20
sg26
g5
sg27
g5
sg28
I27942
sg29
g5
ssS'STABLER FRANK'
p283
(dp284
g3
g5
sg4
g5
sg6
g20
sg7
I16514
sg8
I00
sg9
g5
sg10
S'frank.stabler@enron.com'
p285
sg12
g5
sg13
g5
sg14
g5
sg15
g5
sg16
g5
sg17
I356071
sg18
g5
sg19
g20
sg21
I500000
sg22
I511734
sg23
g5
sg24
g5
sg25
g20
sg26
I511734
sg27
I239502
sg28
I1112087
sg29
g5
ssS'SKILLING JEFFREY K'
p286
(dp287
g3
I3627
sg4
g5
sg6
F0.2778
sg7
I29336
sg8
I01
sg9
g5
sg10
S'jeff.skilling@enron.com'
p288
sg12
I1920000
sg13
g5
sg14
I2042
sg15
g5
sg16
I108
sg17
I22122
sg18
g5
sg19
F2.217
sg21
I5600000
sg22
I26093672
sg23
I88
sg24
I30
sg25
F0.0243
sg26
I6843672
sg27
I1111258
sg28
I8682716
sg29
I19250000
ssS'BLAKE JR. NORMAN P'
p289
(dp290
g3
g5
sg4
g5
sg6
g20
sg7
I1279
sg8
I00
sg9
I-113784
sg10
g5
sg12
g5
sg13
g5
sg14
g5
sg15
g5
sg16
g5
sg17
g5
sg18
I113784
sg19
g20
sg21
g5
sg22
g5
sg23
g5
sg24
g5
sg25
g20
sg26
g5
sg27
g5
sg28
I1279
sg29
g5
ssS'SHERRICK JEFFREY B'
p291
(dp292
g3
I613
sg4
g5
sg6
F0.72
sg7
g5
sg8
I00
sg9
g5
sg10
S'jeffrey.sherrick@enron.com'
p293
sg12
g5
sg13
g5
sg14
I583
sg15
g5
sg16
I25
sg17
g5
sg18
g5
sg19
g20
sg21
g5
sg22
I1832468
sg23
I39
sg24
I18
sg25
F0.0636
sg26
I405999
sg27
g5
sg28
g5
sg29
I1426469
ssS'PRENTICE JAMES'
p294
(dp295
g3
g5
sg4
I564348
sg6
g20
sg7
g5
sg8
I00
sg9
g5
sg10
S'james.prentice@enron.com'
p296
sg12
g5
sg13
g5
sg14
g5
sg15
g5
sg16
g5
sg17
g5
sg18
g5
sg19
F1.5704
sg21
g5
sg22
I1095040
sg23
g5
sg24
g5
sg25
g20
sg26
I208809
sg27
g5
sg28
I564348
sg29
I886231
ssS'GRAY RODNEY'
p297
(dp298
g3
g5
sg4
I93585
sg6
g20
sg7
g5
sg8
I00
sg9
g5
sg10
g5
sg12
I365625
sg13
g5
sg14
g5
sg15
g5
sg16
g5
sg17
I680833
sg18
g5
sg19
g20
sg21
g5
sg22
g5
sg23
g5
sg24
g5
sg25
g20
sg26
g5
sg27
I6615
sg28
I1146658
sg29
g5
ssS'THE TRAVEL AGENCY IN THE PARK'
p299
(dp300
g3
g5
sg4
g5
sg6
g20
sg7
g5
sg8
I00
sg9
g5
sg10
g5
sg12
g5
sg13
g5
sg14
g5
sg15
g5
sg16
g5
sg17
I362096
sg18
g5
sg19
g20
sg21
g5
sg22
g5
sg23
g5
sg24
g5
sg25
g20
sg26
g5
sg27
g5
sg28
I362096
sg29
g5
ssS'UMANOFF ADAM S'
p301
(dp302
g3
I111
sg4
g5
sg6
F0.0
sg7
I53122
sg8
I00
sg9
g5
sg10
S'adam.umanoff@enron.com'
p303
sg12
g5
sg13
g5
sg14
I41
sg15
g5
sg16
I18
sg17
g5
sg18
g5
sg19
g20
sg21
I788750
sg22
g5
sg23
I12
sg24
I0
sg25
F0.1081
sg26
g5
sg27
I288589
sg28
I1130461
sg29
g5
ssS'KEAN STEVEN J'
p304
(dp305
g3
I12754
sg4
g5
sg6
F0.0573
sg7
I41953
sg8
I00
sg9
g5
sg10
S'steven.kean@enron.com'
p306
sg12
I300000
sg13
g5
sg14
I3639
sg15
g5
sg16
I6759
sg17
I1231
sg18
g5
sg19
F1.1571
sg21
I1000000
sg22
I6153642
sg23
I140
sg24
I387
sg25
F0.011
sg26
I4131594
sg27
I404338
sg28
I1747522
sg29
I2022048
ssS'FOWLER PEGGY'
p307
(dp308
g3
I517
sg4
g5
sg6
F0.0
sg7
g5
sg8
I00
sg9
g5
sg10
S'kulvinder.fowler@enron.com'
p309
sg12
g5
sg13
g5
sg14
I10
sg15
g5
sg16
I36
sg17
g5
sg18
g5
sg19
g20
sg21
g5
sg22
I1884748
sg23
I0
sg24
I0
sg25
F0.0
sg26
I560170
sg27
g5
sg28
g5
sg29
I1324578
ssS'WASAFF GEORGE'
p310
(dp311
g3
I400
sg4
I831299
sg6
F0.2333
sg7
g5
sg8
I00
sg9
I-583325
sg10
S'george.wasaff@enron.com'
p312
sg12
I200000
sg13
g5
sg14
I337
sg15
g5
sg16
I30
sg17
I1425
sg18
g5
sg19
F1.6128
sg21
I325000
sg22
I2056427
sg23
I22
sg24
I7
sg25
F0.055
sg26
I388167
sg27
I259996
sg28
I1034395
sg29
I1668260
ssS'WHITE JR THOMAS E'
p313
(dp314
g3
g5
sg4
g5
sg6
g20
sg7
I81353
sg8
I00
sg9
g5
sg10
S'thomas.white@enron.com'
p315
sg12
g5
sg13
g5
sg14
g5
sg15
g5
sg16
g5
sg17
I1085463
sg18
g5
sg19
F0.6705
sg21
I450000
sg22
I15144123
sg23
g5
sg24
g5
sg25
g20
sg26
I13847074
sg27
I317543
sg28
I1934359
sg29
I1297049
ssS'CHRISTODOULOU DIOMEDES'
p316
(dp317
g3
g5
sg4
g5
sg6
g20
sg7
g5
sg8
I00
sg9
g5
sg10
S'diomedes.christodoulou@enron.com'
p318
sg12
g5
sg13
g5
sg14
g5
sg15
g5
sg16
g5
sg17
g5
sg18
g5
sg19
g20
sg21
g5
sg22
I6077885
sg23
g5
sg24
g5
sg25
g20
sg26
I950730
sg27
g5
sg28
g5
sg29
I5127155
ssS'ALLEN PHILLIP K'
p319
(dp320
g3
I2902
sg4
I2869717
sg6
F0.0296
sg7
I13868
sg8
I00
sg9
I-3081055
sg10
S'phillip.allen@enron.com'
p321
sg12
I304805
sg13
I-126027
sg14
I1407
sg15
g5
sg16
I2195
sg17
I152
sg18
g5
sg19
F0.3857
sg21
I4175000
sg22
I1729541
sg23
I47
sg24
I65
sg25
F0.0162
sg26
I126027
sg27
I201955
sg28
I4484442
sg29
I1729541
ssS'SHARP VICTORIA T'
p322
(dp323
g3
I3136
sg4
I187469
sg6
F0.0441
sg7
I116337
sg8
I00
sg9
g5
sg10
S'vicki.sharp@enron.com'
p324
sg12
I422158
sg13
g5
sg14
I2477
sg15
g5
sg16
I136
sg17
I2401
sg18
g5
sg19
F0.1783
sg21
I600000
sg22
I494136
sg23
I24
sg24
I6
sg25
F0.0077
sg26
I213063
sg27
I248146
sg28
I1576511
sg29
I281073
ssS'JAEDICKE ROBERT'
p325
(dp326
g3
g5
sg4
g5
sg6
g20
sg7
g5
sg8
I00
sg9
I-25000
sg10
g5
sg12
g5
sg13
I-44093
sg14
g5
sg15
g5
sg16
g5
sg17
g5
sg18
I108750
sg19
F5.1552
sg21
g5
sg22
I431750
sg23
g5
sg24
g5
sg25
g20
sg26
I44093
sg27
g5
sg28
I83750
sg29
I431750
ssS'WINOKUR JR. HERBERT S'
p327
(dp328
g3
g5
sg4
g5
sg6
g20
sg7
I1413
sg8
I00
sg9
I-25000
sg10
g5
sg12
g5
sg13
g5
sg14
g5
sg15
g5
sg16
g5
sg17
g5
sg18
I108579
sg19
g20
sg21
g5
sg22
g5
sg23
g5
sg24
g5
sg25
g20
sg26
g5
sg27
g5
sg28
I84992
sg29
g5
ssS'BROWN MICHAEL'
p329
(dp330
g3
I1486
sg4
g5
sg6
F0.0244
sg7
I49288
sg8
I00
sg9
g5
sg10
S'michael.brown@enron.com'
p331
sg12
g5
sg13
g5
sg14
I761
sg15
g5
sg16
I41
sg17
g5
sg18
g5
sg19
g20
sg21
g5
sg22
g5
sg23
I13
sg24
I1
sg25
F0.0087
sg26
g5
sg27
g5
sg28
I49288
sg29
g5
ssS'MCCLELLAN GEORGE'
p332
(dp333
g3
I1744
sg4
g5
sg6
F0.0
sg7
I228763
sg8
I00
sg9
I-125000
sg10
S'george.mcclellan@enron.com'
p334
sg12
g5
sg13
g5
sg14
I1469
sg15
g5
sg16
I49
sg17
I51587
sg18
g5
sg19
F0.3843
sg21
I900000
sg22
I947861
sg23
I52
sg24
I0
sg25
F0.0298
sg26
I441096
sg27
I263413
sg28
I1318763
sg29
I506765
ssS'HUGHES JAMES A'
p335
(dp336
g3
I719
sg4
g5
sg6
F0.1471
sg7
g5
sg8
I00
sg9
g5
sg10
S'james.hughes@enron.com'
p337
sg12
g5
sg13
g5
sg14
I589
sg15
g5
sg16
I34
sg17
g5
sg18
g5
sg19
g20
sg21
g5
sg22
I1118394
sg23
I35
sg24
I5
sg25
F0.0487
sg26
I363428
sg27
g5
sg28
g5
sg29
I754966
ssS'REYNOLDS LAWRENCE'
p338
(dp339
g3
g5
sg4
I51365
sg6
g20
sg7
I8409
sg8
I00
sg9
I-200000
sg10
g5
sg12
I156250
sg13
I-140264
sg14
g5
sg15
g5
sg16
g5
sg17
I202052
sg18
g5
sg19
F10.5474
sg21
I100000
sg22
I4221891
sg23
g5
sg24
g5
sg25
g20
sg26
I201483
sg27
I76399
sg28
I394475
sg29
I4160672
ssS'PICKERING MARK R'
p340
(dp341
g3
I898
sg4
g5
sg6
F0.0
sg7
I31653
sg8
I00
sg9
g5
sg10
S'mark.pickering@enron.com'
p342
sg12
g5
sg13
g5
sg14
I728
sg15
I400000
sg16
I67
sg17
g5
sg18
g5
sg19
F0.0208
sg21
I300000
sg22
I28798
sg23
I7
sg24
I0
sg25
F0.0078
sg26
g5
sg27
I655037
sg28
I1386690
sg29
I28798
ssS'BHATNAGAR SANJAY'
p343
(dp344
g3
I523
sg4
g5
sg6
F0.0345
sg7
g5
sg8
I00
sg9
g5
sg10
S'sanjay.bhatnagar@enron.com'
p345
sg12
g5
sg13
I15456290
sg14
I463
sg15
g5
sg16
I29
sg17
I137864
sg18
I137864
sg19
F0.1685
sg21
g5
sS'total_stock_value'
p346
S'NaN'
p347
sg23
I0
sg24
I1
sg25
F0.0
sg26
I-2604490
sg27
g5
sg28
I15456290
sg29
I2604490
ssS'CARTER REBECCA C'
p348
(dp349
g3
I312
sg4
g5
sg6
F0.4667
sg7
g5
sg8
I00
sg9
I-159792
sg10
S'rebecca.carter@enron.com'
p350
sg12
I75000
sg13
I-307301
sg14
I196
sg15
g5
sg16
I15
sg17
I540
sg18
g5
sg19
g20
sg21
I300000
sg22
g5
sg23
I29
sg24
I7
sg25
F0.0929
sg26
I307301
sg27
I261809
sg28
I477557
sg29
g5
ssS'BUCHANAN HAROLD G'
p351
(dp352
g3
I1088
sg4
g5
sg6
F0.0
sg7
I600
sg8
I00
sg9
g5
sg10
S'john.buchanan@enron.com'
p353
sg12
I304805
sg13
g5
sg14
I23
sg15
g5
sg16
I125
sg17
I1215
sg18
g5
sg19
F0.7827
sg21
I500000
sg22
I1014505
sg23
I0
sg24
I0
sg25
F0.0
sg26
I189041
sg27
I248017
sg28
I1054637
sg29
I825464
ssS'YEAP SOON'
p354
(dp355
g3
g5
sg4
g5
sg6
g20
sg7
I55097
sg8
I00
sg9
g5
sg10
g5
sg12
g5
sg13
g5
sg14
g5
sg15
g5
sg16
g5
sg17
g5
sg18
g5
sg19
F3.4985
sg21
g5
sg22
I192758
sg23
g5
sg24
g5
sg25
g20
sg26
g5
sg27
g5
sg28
I55097
sg29
I192758
ssS'MURRAY JULIA H'
p356
(dp357
g3
I2192
sg4
g5
sg6
F0.0444
sg7
I57580
sg8
I00
sg9
g5
sg10
S'julia.murray@enron.com'
p358
sg12
I125000
sg13
g5
sg14
I395
sg15
g5
sg16
I45
sg17
I330
sg18
g5
sg19
F0.4931
sg21
I400000
sg22
I597461
sg23
I11
sg24
I2
sg25
F0.005
sg26
I196983
sg27
I229284
sg28
I812194
sg29
I400478
ssS'GARLAND C KEVIN'
p359
(dp360
g3
I209
sg4
g5
sg6
F0.6136
sg7
I48405
sg8
I00
sg9
g5
sg10
S'kevin.garland@enron.com'
p361
sg12
I375304
sg13
g5
sg14
I178
sg15
g5
sg16
I44
sg17
I60814
sg18
g5
sg19
F0.4062
sg21
I850000
sg22
I896153
sg23
I10
sg24
I27
sg25
F0.0478
sg26
I259907
sg27
I231946
sg28
I1566469
sg29
I636246
ssS'DODSON KEITH'
p362
(dp363
g3
I176
sg4
g5
sg6
F0.2143
sg7
I28164
sg8
I00
sg9
g5
sg10
S'keith.dodson@enron.com'
p364
sg12
g5
sg13
g5
sg14
I114
sg15
g5
sg16
I14
sg17
I774
sg18
g5
sg19
g20
sg21
I70000
sg22
g5
sg23
I10
sg24
I3
sg25
F0.0568
sg26
g5
sg27
I221003
sg28
I319941
sg29
g5
ssS'YEAGER F SCOTT'
p365
(dp366
g3
g5
sg4
g5
sg6
g20
sg7
I53947
sg8
I01
sg9
g5
sg10
S'scott.yeager@enron.com'
p367
sg12
g5
sg13
g5
sg14
g5
sg15
g5
sg16
g5
sg17
I147950
sg18
g5
sg19
F23.0601
sg21
g5
sg22
I11884758
sg23
g5
sg24
g5
sg25
g20
sg26
I3576206
sg27
I158403
sg28
I360300
sg29
I8308552
ssS'HIRKO JOSEPH'
p368
(dp369
g3
g5
sg4
I10259
sg6
g20
sg7
I77978
sg8
I01
sg9
g5
sg10
S'joe.hirko@enron.com'
p370
sg12
g5
sg13
g5
sg14
g5
sg15
g5
sg16
g5
sg17
I2856
sg18
g5
sg19
F337.7434
sg21
g5
sg22
I30766064
sg23
g5
sg24
g5
sg25
g20
sg26
g5
sg27
g5
sg28
I91093
sg29
I30766064
ssS'DIETRICH JANET R'
p371
(dp372
g3
I2572
sg4
g5
sg6
F0.2222
sg7
I3475
sg8
I00
sg9
g5
sg10
S'janet.dietrich@enron.com'
p373
sg12
I556416
sg13
g5
sg14
I1902
sg15
g5
sg16
I63
sg17
I473
sg18
g5
sg19
F1.0989
sg21
I600000
sg22
I1865087
sg23
I305
sg24
I14
sg25
F0.1186
sg26
I315068
sg27
I250100
sg28
I1410464
sg29
I1550019
ssS'DERRICK JR. JAMES V'
p374
(dp375
g3
I2181
sg4
g5
sg6
F0.022
sg7
I51124
sg8
I00
sg9
I-1284000
sg10
S'james.derrick@enron.com'
p376
sg12
I484000
sg13
I-1787380
sg14
I1401
sg15
g5
sg16
I909
sg17
I7482
sg18
g5
sg19
F16.0294
sg21
I800000
sg22
I8831913
sg23
I64
sg24
I20
sg25
F0.0293
sg26
I1787380
sg27
I492375
sg28
I550981
sg29
I8831913
ssS'FREVERT MARK A'
p377
(dp378
g3
I3275
sg4
I6426990
sg6
F0.2857
sg7
I86987
sg8
I00
sg9
I-3367011
sg10
S'mark.frevert@enron.com'
p379
sg12
I1617011
sg13
g5
sg14
I2979
sg15
I2000000
sg16
I21
sg17
I7427621
sg18
g5
sg19
F0.6048
sg21
I2000000
sg22
I14622185
sg23
I242
sg24
I6
sg25
F0.0739
sg26
I4188667
sg27
I1060932
sg28
I17252530
sg29
I10433518
ssS'PAI LOU L'
p380
(dp381
g3
g5
sg4
g5
sg6
g20
sg7
I32047
sg8
I00
sg9
g5
sg10
S'lou.pai@enron.com'
p382
sg12
g5
sg13
g5
sg14
g5
sg15
g5
sg16
g5
sg17
I1829457
sg18
g5
sg19
F4.9191
sg21
I1000000
sg22
I23817930
sg23
g5
sg24
g5
sg25
g20
sg26
I8453763
sg27
I261879
sg28
I3123383
sg29
I15364167
ssS'HAYSLETT RODERICK J'
p383
(dp384
g3
I2649
sg4
g5
sg6
F0.0358
sg7
g5
sg8
I00
sg9
g5
sg10
S'rod.hayslett@enron.com'
p385
sg12
g5
sg13
g5
sg14
I571
sg15
g5
sg16
I1061
sg17
g5
sg18
g5
sg19
g20
sg21
g5
sg22
I346663
sg23
I35
sg24
I38
sg25
F0.0132
sg26
I346663
sg27
g5
sg28
g5
sg29
g5
ssS'BAY FRANKLIN R'
p386
(dp387
g3
g5
sg4
I260455
sg6
g20
sg7
I129142
sg8
I00
sg9
I-201641
sg10
S'frank.bay@enron.com'
p388
sg12
g5
sg13
I-82782
sg14
g5
sg15
g5
sg16
g5
sg17
I69
sg18
g5
sg19
g20
sg21
I400000
sg22
I63014
sg23
g5
sg24
g5
sg25
g20
sg26
I145796
sg27
I239671
sg28
I827696
sg29
g5
ssS'MCCARTY DANNY J'
p389
(dp390
g3
I1433
sg4
g5
sg6
F0.0093
sg7
g5
sg8
I00
sg9
g5
sg10
S'danny.mccarty@enron.com'
p391
sg12
g5
sg13
g5
sg14
I508
sg15
g5
sg16
I215
sg17
g5
sg18
g5
sg19
g20
sg21
g5
sg22
I758931
sg23
I25
sg24
I2
sg25
F0.0174
sg26
I94556
sg27
g5
sg28
g5
sg29
I664375
ssS'FUGH JOHN L'
p392
(dp393
g3
g5
sg4
I50591
sg6
g20
sg7
g5
sg8
I00
sg9
g5
sg10
g5
sg12
g5
sg13
g5
sg14
g5
sg15
g5
sg16
g5
sg17
g5
sg18
g5
sg19
F3.4864
sg21
g5
sg22
I176378
sg23
g5
sg24
g5
sg25
g20
sg26
g5
sg27
g5
sg28
I50591
sg29
I176378
ssS'SCRIMSHAW MATTHEW'
p394
(dp395
g3
g5
sg4
g5
sg6
g20
sg7
g5
sg8
I00
sg9
g5
sg10
S'matthew.scrimshaw@enron.com'
p396
sg12
g5
sg13
g5
sg14
g5
sg15
g5
sg16
g5
sg17
g5
sg18
g5
sg19
g20
sg21
g5
sg22
I759557
sg23
g5
sg24
g5
sg25
g20
sg26
g5
sg27
g5
sg28
g5
sg29
I759557
ssS'KOENIG MARK E'
p397
(dp398
g3
I2374
sg4
g5
sg6
F0.2459
sg7
I127017
sg8
I01
sg9
g5
sg10
S'mark.koenig@enron.com'
p399
sg12
I300000
sg13
g5
sg14
I2271
sg15
g5
sg16
I61
sg17
I150458
sg18
g5
sg19
F0.4232
sg21
I700000
sg22
I1920055
sg23
I53
sg24
I15
sg25
F0.0223
sg26
I1248318
sg27
I309946
sg28
I1587421
sg29
I671737
ssS'SAVAGE FRANK'
p400
(dp401
g3
g5
sg4
g5
sg6
g20
sg7
g5
sg8
I00
sg9
I-121284
sg10
g5
sg12
g5
sg13
g5
sg14
g5
sg15
g5
sg16
g5
sg17
g5
sg18
I125034
sg19
g20
sg21
g5
sg22
g5
sg23
g5
sg24
g5
sg25
g20
sg26
g5
sg27
g5
sg28
I3750
sg29
g5
ssS'IZZO LAWRENCE L'
p402
(dp403
g3
I496
sg4
g5
sg6
F0.2632
sg7
I28093
sg8
I00
sg9
g5
sg10
S'larry.izzo@enron.com'
p404
sg12
I312500
sg13
g5
sg14
I437
sg15
g5
sg16
I19
sg17
I1553729
sg18
g5
sg19
F1.0937
sg21
g5
sg22
I5819980
sg23
I28
sg24
I5
sg25
F0.0565
sg26
I3654808
sg27
I85274
sg28
I1979596
sg29
I2165172
ssS'TILNEY ELIZABETH A'
p405
(dp406
g3
I460
sg4
g5
sg6
F0.5789
sg7
g5
sg8
I00
sg9
I-575000
sg10
S'elizabeth.tilney@enron.com'
p407
sg12
I275000
sg13
g5
sg14
I379
sg15
g5
sg16
I19
sg17
I152055
sg18
g5
sg19
F1.4804
sg21
I300000
sg22
I1168042
sg23
I10
sg24
I11
sg25
F0.0217
sg26
I576792
sg27
I247338
sg28
I399393
sg29
I591250
ssS'MARTIN AMANDA K'
p408
(dp409
g3
I1522
sg4
I85430
sg6
F0.0
sg7
I8211
sg8
I00
sg9
g5
sg10
S'a..martin@enron.com'
p410
sg12
I5145434
sg13
g5
sg14
I477
sg15
g5
sg16
I230
sg17
I2818454
sg18
g5
sg19
F0.2463
sg21
g5
sg22
I2070306
sg23
I8
sg24
I0
sg25
F0.0053
sg26
g5
sg27
I349487
sg28
I8407016
sg29
I2070306
ssS'BUY RICHARD B'
p411
(dp412
g3
I3523
sg4
I649584
sg6
F0.0674
sg7
g5
sg8
I00
sg9
I-694862
sg10
S'rick.buy@enron.com'
p413
sg12
I769862
sg13
g5
sg14
I2333
sg15
g5
sg16
I1053
sg17
I400572
sg18
g5
sg19
F1.0794
sg21
I900000
sg22
I3444470
sg23
I156
sg24
I71
sg25
F0.0443
sg26
I901657
sg27
I330546
sg28
I2355702
sg29
I2542813
ssS'GRAMM WENDY L'
p414
(dp415
g3
g5
sg4
g5
sg6
g20
sg7
g5
sg8
I00
sg9
g5
sg10
g5
sg12
g5
sg13
g5
sg14
g5
sg15
g5
sg16
g5
sg17
g5
sg18
I119292
sg19
g20
sg21
g5
sg22
g5
sg23
g5
sg24
g5
sg25
g20
sg26
g5
sg27
g5
sg28
I119292
sg29
g5
ssS'CAUSEY RICHARD A'
p416
(dp417
g3
I1892
sg4
g5
sg6
F0.2449
sg7
I30674
sg8
I01
sg9
I-235000
sg10
S'richard.causey@enron.com'
p418
sg12
I350000
sg13
g5
sg14
I1585
sg15
g5
sg16
I49
sg17
I307895
sg18
g5
sg19
g20
sg21
I1000000
sg22
I2502063
sg23
I58
sg24
I12
sg25
F0.0307
sg26
I2502063
sg27
I415189
sg28
I1868758
sg29
g5
ssS'TAYLOR MITCHELL S'
p419
(dp420
g3
I533
sg4
I227449
sg6
F0.0
sg7
g5
sg8
I00
sg9
g5
sg10
S'mitchell.taylor@enron.com'
p421
sg12
g5
sg13
g5
sg14
I300
sg15
g5
sg16
I29
sg17
g5
sg18
g5
sg19
F2.9115
sg21
I600000
sg22
I3745048
sg23
I0
sg24
I0
sg25
F0.0
sg26
I563798
sg27
I265214
sg28
I1092663
sg29
I3181250
ssS'DONAHUE JR JEFFREY M'
p422
(dp423
g3
I865
sg4
g5
sg6
F0.5
sg7
I96268
sg8
I00
sg9
I-300000
sg10
S'jeff.donahue@enron.com'
p424
sg12
g5
sg13
g5
sg14
I772
sg15
g5
sg16
I22
sg17
I891
sg18
g5
sg19
F0.8746
sg21
I800000
sg22
I1080988
sg23
I188
sg24
I11
sg25
F0.2173
sg26
I315068
sg27
I278601
sg28
I875760
sg29
I765920
ssS'GLISAN JR BEN F'
p425
(dp426
g3
I873
sg4
g5
sg6
F0.375
sg7
I125978
sg8
I01
sg9
g5
sg10
S'ben.glisan@enron.com'
p427
sg12
I71023
sg13
g5
sg14
I874
sg15
g5
sg16
I16
sg17
I200308
sg18
g5
sg19
F0.3024
sg21
I600000
sg22
I778546
sg23
I52
sg24
I6
sg25
F0.0596
sg26
I393818
sg27
I274975
sg28
I1272284
sg29
I384728
ss.