(dp0
S'METTS MARK'
p1
(dp2
S'to_messages'
p3
I807
sS'deferral_payments'
p4
S'NaN'
p5
sS'ratio_to_poi_email_sent'
p6
F0.0345
sS'expenses'
p7
I94299
sS'poi'
p8
I00
sS'deferred_income'
p9
g5
sS'email_address'
p10
S'mark.metts@enron.com'
p11
sS'long_term_incentive'
p12
g5
sS'restricted_stock_deferred'
p13
g5
sS'shared_receipt_with_poi'
p14
I702
sS'loan_advances'
p15
g5
sS'from_messages'
p16
I29
sS'other'
p17
I1740
sS'director_fees'
p18
g5
sS'ratio_exer_stock_total'
p19
S'NaN'
p20
sS'bonus'
p21
I600000
sS'total_stock_value'
p22
I585062
sS'from_poi_to_this_person'
p23
I38
sS'ratio_exer_stock_total_stock'
p24
g20
sS'from_this_person_to_poi'
p25
I1
sS'ratio_from_poi_email_received'
p26
F0.0471
sS'restricted_stock'
p27
I585062
sS'salary'
p28
I365788
sS'total_payments'
p29
I1061827
sS'exercised_stock_options'
p30
g5
ssS'BAXTER JOHN C'
p31
(dp32
g3
g5
sg4
I1295738
sg6
g20
sg7
I11200
sg8
I00
sg9
I-1386055
sg10
g5
sg12
I1586055
sg13
g5
sg14
g5
sg15
g5
sg16
g5
sg17
I2660303
sg18
g5
sg19
F1.1857
sg21
I1200000
sg22
I10623258
sg23
g5
sg24
F0.6289
sg25
g5
sg26
g20
sg27
I3942714
sg28
I267102
sg29
I5634343
sg30
I6680544
ssS'ELLIOTT STEVEN'
p33
(dp34
g3
g5
sg4
g5
sg6
g20
sg7
I78552
sg8
I00
sg9
I-400729
sg10
S'steven.elliott@enron.com'
p35
sg12
g5
sg13
g5
sg14
g5
sg15
g5
sg16
g5
sg17
I12961
sg18
g5
sg19
F23.0976
sg21
I350000
sg22
I6678735
sg23
g5
sg24
F0.7322
sg25
g5
sg26
g20
sg27
I1788391
sg28
I170941
sg29
I211725
sg30
I4890344
ssS'CORDES WILLIAM R'
p36
(dp37
g3
I764
sg4
g5
sg6
F0.0
sg7
g5
sg8
I00
sg9
g5
sg10
S'bill.cordes@enron.com'
p38
sg12
g5
sg13
g5
sg14
I58
sg15
g5
sg16
I12
sg17
g5
sg18
g5
sg19
g20
sg21
g5
sg22
I1038185
sg23
I10
sg24
F0.6279
sg25
I0
sg26
F0.0131
sg27
I386335
sg28
g5
sg29
g5
sg30
I651850
ssS'HANNON KEVIN P'
p39
(dp40
g3
I1045
sg4
g5
sg6
F0.6563
sg7
I34039
sg8
I01
sg9
I-3117011
sg10
S'kevin.hannon@enron.com'
p41
sg12
I1617011
sg13
g5
sg14
I1035
sg15
g5
sg16
I32
sg17
I11350
sg18
g5
sg19
F19.1837
sg21
I1500000
sg22
I6391065
sg23
I32
sg24
F0.8665
sg25
I21
sg26
F0.0306
sg27
I853064
sg28
I243293
sg29
I288682
sg30
I5538001
ssS'MORDAUNT KRISTINA M'
p42
(dp43
g3
g5
sg4
g5
sg6
g20
sg7
I35018
sg8
I00
sg9
g5
sg10
S'kristina.mordaunt@enron.com'
p44
sg12
g5
sg13
g5
sg14
g5
sg15
g5
sg16
g5
sg17
I1411
sg18
g5
sg19
g20
sg21
I325000
sg22
I208510
sg23
g5
sg24
g20
sg25
g5
sg26
g20
sg27
I208510
sg28
I267093
sg29
I628522
sg30
g5
ssS'MEYER ROCKFORD G'
p45
(dp46
g3
I232
sg4
I1848227
sg6
F0.0
sg7
g5
sg8
I00
sg9
g5
sg10
S'rockford.meyer@enron.com'
p47
sg12
g5
sg13
g5
sg14
I22
sg15
g5
sg16
I28
sg17
g5
sg18
g5
sg19
F0.267
sg21
g5
sg22
I955873
sg23
I0
sg24
F0.5163
sg25
I0
sg26
F0.0
sg27
I462384
sg28
g5
sg29
I1848227
sg30
I493489
ssS'MCMAHON JEFFREY'
p48
(dp49
g3
I2355
sg4
g5
sg6
F0.5417
sg7
I137108
sg8
I00
sg9
g5
sg10
S'jeffrey.mcmahon@enron.com'
p50
sg12
I694862
sg13
g5
sg14
I2228
sg15
g5
sg16
I48
sg17
I297353
sg18
g5
sg19
F0.2693
sg21
I2600000
sg22
I1662855
sg23
I58
sg24
F0.664
sg25
I26
sg26
F0.0246
sg27
I558801
sg28
I370448
sg29
I4099771
sg30
I1104054
ssS'HORTON STANLEY C'
p51
(dp52
g3
I2350
sg4
I3131860
sg6
F0.014
sg7
g5
sg8
I00
sg9
g5
sg10
S'stanley.horton@enron.com'
p53
sg12
g5
sg13
g5
sg14
I1074
sg15
g5
sg16
I1073
sg17
g5
sg18
g5
sg19
F1.6637
sg21
g5
sg22
I7256648
sg23
I44
sg24
F0.718
sg25
I15
sg26
F0.0187
sg27
I2046079
sg28
g5
sg29
I3131860
sg30
I5210569
ssS'PIPER GREGORY F'
p54
(dp55
g3
I1238
sg4
I1130036
sg6
F0.2162
sg7
I43057
sg8
I00
sg9
I-33333
sg10
S'greg.piper@enron.com'
p56
sg12
g5
sg13
I-409554
sg14
I742
sg15
g5
sg16
I222
sg17
I778
sg18
g5
sg19
F0.5066
sg21
I400000
sg22
I880290
sg23
I61
sg24
F1.0
sg25
I48
sg26
F0.0493
sg27
I409554
sg28
I197091
sg29
I1737629
sg30
I880290
ssS'HUMPHREY GENE E'
p57
(dp58
g3
I128
sg4
I2964506
sg6
F1.0
sg7
I4994
sg8
I00
sg9
g5
sg10
S'gene.humphrey@enron.com'
p59
sg12
g5
sg13
g5
sg14
I119
sg15
g5
sg16
I17
sg17
g5
sg18
g5
sg19
F0.7363
sg21
g5
sg22
I2282768
sg23
I10
sg24
F1.0
sg25
I17
sg26
F0.0781
sg27
g5
sg28
I130724
sg29
I3100224
sg30
I2282768
ssS'UMANOFF ADAM S'
p60
(dp61
g3
I111
sg4
g5
sg6
F0.0
sg7
I53122
sg8
I00
sg9
g5
sg10
S'adam.umanoff@enron.com'
p62
sg12
g5
sg13
g5
sg14
I41
sg15
g5
sg16
I18
sg17
g5
sg18
g5
sg19
g20
sg21
I788750
sg22
g5
sg23
I12
sg24
g20
sg25
I0
sg26
F0.1081
sg27
g5
sg28
I288589
sg29
I1130461
sg30
g5
ssS'BLACHMAN JEREMY M'
p63
(dp64
g3
I2475
sg4
g5
sg6
F0.1429
sg7
I84208
sg8
I00
sg9
g5
sg10
S'jeremy.blachman@enron.com'
p65
sg12
I831809
sg13
g5
sg14
I2326
sg15
g5
sg16
I14
sg17
I272
sg18
g5
sg19
F0.3798
sg21
I850000
sg22
I954354
sg23
I25
sg24
F0.8019
sg25
I2
sg26
F0.0101
sg27
I189041
sg28
I248546
sg29
I2014835
sg30
I765313
ssS'SUNDE MARTIN'
p66
(dp67
g3
I2647
sg4
g5
sg6
F0.3421
sg7
g5
sg8
I00
sg9
g5
sg10
S'marty.sunde@enron.com'
p68
sg12
I476451
sg13
g5
sg14
I2565
sg15
g5
sg16
I38
sg17
I111122
sg18
g5
sg19
g20
sg21
I700000
sg22
I698920
sg23
I37
sg24
g20
sg25
I13
sg26
F0.014
sg27
I698920
sg28
I257486
sg29
I1545059
sg30
g5
ssS'GIBBS DANA R'
p69
(dp70
g3
I169
sg4
I504610
sg6
F0.0
sg7
g5
sg8
I00
sg9
g5
sg10
S'dana.gibbs@enron.com'
p71
sg12
I461912
sg13
g5
sg14
I23
sg15
g5
sg16
I12
sg17
g5
sg18
g5
sg19
F2.2951
sg21
g5
sg22
I2218275
sg23
I0
sg24
F1.0
sg25
I0
sg26
F0.0
sg27
g5
sg28
g5
sg29
I966522
sg30
I2218275
ssS'LOWRY CHARLES P'
p72
(dp73
g3
g5
sg4
g5
sg6
g20
sg7
g5
sg8
I00
sg9
g5
sg10
g5
sg12
g5
sg13
I-153686
sg14
g5
sg15
g5
sg16
g5
sg17
g5
sg18
g5
sg19
g20
sg21
g5
sg22
I372205
sg23
g5
sg24
F1.0
sg25
g5
sg26
g20
sg27
I153686
sg28
g5
sg29
g5
sg30
I372205
ssS'COLWELL WESLEY'
p74
(dp75
g3
I1758
sg4
I27610
sg6
F0.275
sg7
I16514
sg8
I01
sg9
I-144062
sg10
S'wes.colwell@enron.com'
p76
sg12
g5
sg13
g5
sg14
I1132
sg15
g5
sg16
I40
sg17
I101740
sg18
g5
sg19
g20
sg21
I1200000
sg22
I698242
sg23
I240
sg24
g20
sg25
I11
sg26
F0.1365
sg27
I698242
sg28
I288542
sg29
I1490344
sg30
g5
ssS'MULLER MARK S'
p77
(dp78
g3
I136
sg4
I842924
sg6
F0.0
sg7
g5
sg8
I00
sg9
I-719000
sg10
S's..muller@enron.com'
p79
sg12
I1725545
sg13
g5
sg14
I114
sg15
g5
sg16
I16
sg17
I947
sg18
g5
sg19
F0.3299
sg21
I1100000
sg22
I1416848
sg23
I12
sg24
F0.7455
sg25
I0
sg26
F0.0882
sg27
I360528
sg28
I251654
sg29
I3202070
sg30
I1056320
ssS'JACKSON CHARLENE R'
p80
(dp81
g3
I258
sg4
g5
sg6
F0.3393
sg7
I10181
sg8
I00
sg9
g5
sg10
S'charlene.jackson@enron.com'
p82
sg12
g5
sg13
g5
sg14
I117
sg15
g5
sg16
I56
sg17
I2435
sg18
g5
sg19
F0.3358
sg21
I250000
sg22
I725735
sg23
I25
sg24
F0.255
sg25
I19
sg26
F0.0969
sg27
I540672
sg28
I288558
sg29
I551174
sg30
I185063
ssS'WESTFAHL RICHARD K'
p83
(dp84
g3
g5
sg4
g5
sg6
g20
sg7
I51870
sg8
I00
sg9
I-10800
sg10
S'dick.westfahl@enron.com'
p85
sg12
I256191
sg13
g5
sg14
g5
sg15
g5
sg16
g5
sg17
I401130
sg18
g5
sg19
g20
sg21
g5
sg22
I384930
sg23
g5
sg24
g20
sg25
g5
sg26
g20
sg27
I384930
sg28
I63744
sg29
I762135
sg30
g5
ssS'WALTERS GARETH W'
p86
(dp87
g3
g5
sg4
I53625
sg6
g20
sg7
I33785
sg8
I00
sg9
g5
sg10
g5
sg12
g5
sg13
g5
sg14
g5
sg15
g5
sg16
g5
sg17
g5
sg18
g5
sg19
F11.7873
sg21
g5
sg22
I1030329
sg23
g5
sg24
F1.0
sg25
g5
sg26
g20
sg27
g5
sg28
g5
sg29
I87410
sg30
I1030329
ssS'WALLS JR ROBERT H'
p88
(dp89
g3
I671
sg4
g5
sg6
F0.0
sg7
I50936
sg8
I00
sg9
g5
sg10
S'rob.walls@enron.com'
p90
sg12
I540751
sg13
g5
sg14
I215
sg15
g5
sg16
I146
sg17
I2
sg18
g5
sg19
F2.4164
sg21
I850000
sg22
I5898997
sg23
I17
sg24
F0.7368
sg25
I0
sg26
F0.0253
sg27
I1552453
sg28
I357091
sg29
I1798780
sg30
I4346544
ssS'KITCHEN LOUISE'
p91
(dp92
g3
I8305
sg4
g5
sg6
F0.1123
sg7
I5774
sg8
I00
sg9
g5
sg10
S'louise.kitchen@enron.com'
p93
sg12
g5
sg13
g5
sg14
I3669
sg15
g5
sg16
I1728
sg17
I93925
sg18
g5
sg19
F0.0233
sg21
I3100000
sg22
I547143
sg23
I251
sg24
F0.1481
sg25
I194
sg26
F0.0302
sg27
I466101
sg28
I271442
sg29
I3471141
sg30
I81042
ssS'BELFER ROBERT'
p94
(dp95
g3
g5
sg4
I-102500
sg6
g20
sg7
g5
sg8
I00
sg9
g5
sg10
g5
sg12
g5
sg13
I44093
sg14
g5
sg15
g5
sg16
g5
sg17
g5
sg18
I3285
sg19
F0.032
sg21
g5
sg22
I-44093
sg23
g5
sg24
F-0.0745
sg25
g5
sg26
g20
sg27
g5
sg28
g5
sg29
I102500
sg30
I3285
ssS'SHANKMAN JEFFREY A'
p96
(dp97
g3
I3221
sg4
g5
sg6
F0.031
sg7
I178979
sg8
I00
sg9
g5
sg10
S'jeffrey.shankman@enron.com'
p98
sg12
I554422
sg13
g5
sg14
I1730
sg15
g5
sg16
I2681
sg17
I1191
sg18
g5
sg19
F0.4745
sg21
I2000000
sg22
I2072035
sg23
I94
sg24
F0.6959
sg25
I83
sg26
F0.0292
sg27
I630137
sg28
I304110
sg29
I3038702
sg30
I1441898
ssS'WODRASKA JOHN'
p99
(dp100
g3
g5
sg4
g5
sg6
g20
sg7
g5
sg8
I00
sg9
g5
sg10
S'john.wodraska@enron.com'
p101
sg12
g5
sg13
g5
sg14
g5
sg15
g5
sg16
g5
sg17
I189583
sg18
g5
sg19
g20
sg21
g5
sg22
g5
sg23
g5
sg24
g20
sg25
g5
sg26
g20
sg27
g5
sg28
g5
sg29
I189583
sg30
g5
ssS'BERGSIEKER RICHARD P'
p102
(dp103
g3
I383
sg4
g5
sg6
F0.0
sg7
I59175
sg8
I00
sg9
I-485813
sg10
S'rick.bergsieker@enron.com'
p104
sg12
I180250
sg13
g5
sg14
I233
sg15
g5
sg16
I59
sg17
I427316
sg18
g5
sg19
g20
sg21
I250000
sg22
I659249
sg23
I4
sg24
g20
sg25
I0
sg26
F0.0104
sg27
I659249
sg28
I187922
sg29
I618850
sg30
g5
ssS'URQUHART JOHN A'
p105
(dp106
g3
g5
sg4
g5
sg6
g20
sg7
I228656
sg8
I00
sg9
I-36666
sg10
g5
sg12
g5
sg13
g5
sg14
g5
sg15
g5
sg16
g5
sg17
g5
sg18
I36666
sg19
g20
sg21
g5
sg22
g5
sg23
g5
sg24
g20
sg25
g5
sg26
g20
sg27
g5
sg28
g5
sg29
I228656
sg30
g5
ssS'BIBI PHILIPPE A'
p107
(dp108
g3
I1607
sg4
g5
sg6
F0.2
sg7
I38559
sg8
I00
sg9
g5
sg10
S'philippe.bibi@enron.com'
p109
sg12
I369721
sg13
g5
sg14
I1336
sg15
g5
sg16
I40
sg17
I425688
sg18
g5
sg19
F0.7158
sg21
I1000000
sg22
I1843816
sg23
I23
sg24
F0.7949
sg25
I8
sg26
F0.0143
sg27
I378082
sg28
I213625
sg29
I2047593
sg30
I1465734
ssS'RIEKER PAULA H'
p110
(dp111
g3
I1328
sg4
I214678
sg6
F0.5854
sg7
I33271
sg8
I01
sg9
I-100000
sg10
S'paula.rieker@enron.com'
p112
sg12
g5
sg13
g5
sg14
I1258
sg15
g5
sg16
I82
sg17
I1950
sg18
g5
sg19
F1.4878
sg21
I700000
sg22
I1918887
sg23
I35
sg24
F0.8522
sg25
I48
sg26
F0.0264
sg27
I283649
sg28
I249201
sg29
I1099100
sg30
I1635238
ssS'WHALEY DAVID A'
p113
(dp114
g3
g5
sg4
g5
sg6
g20
sg7
g5
sg8
I00
sg9
g5
sg10
g5
sg12
g5
sg13
g5
sg14
g5
sg15
g5
sg16
g5
sg17
g5
sg18
g5
sg19
g20
sg21
g5
sg22
I98718
sg23
g5
sg24
F1.0
sg25
g5
sg26
g20
sg27
g5
sg28
g5
sg29
g5
sg30
I98718
ssS'BECK SALLY W'
p115
(dp116
g3
I7315
sg4
g5
sg6
F0.0889
sg7
I37172
sg8
I00
sg9
g5
sg10
S'sally.beck@enron.com'
p117
sg12
g5
sg13
g5
sg14
I2639
sg15
g5
sg16
I4343
sg17
I566
sg18
g5
sg19
g20
sg21
I700000
sg22
I126027
sg23
I144
sg24
g20
sg25
I386
sg26
F0.0197
sg27
I126027
sg28
I231330
sg29
I969068
sg30
g5
ssS'HAUG DAVID L'
p118
(dp119
g3
I573
sg4
g5
sg6
F0.3684
sg7
I475
sg8
I00
sg9
g5
sg10
S'david.haug@enron.com'
p120
sg12
g5
sg13
g5
sg14
I471
sg15
g5
sg16
I19
sg17
g5
sg18
g5
sg19
g20
sg21
g5
sg22
I2217299
sg23
I4
sg24
g20
sg25
I7
sg26
F0.007
sg27
I2217299
sg28
g5
sg29
I475
sg30
g5
ssS'ECHOLS JOHN B'
p121
(dp122
g3
g5
sg4
g5
sg6
g20
sg7
I21530
sg8
I00
sg9
g5
sg10
S'john.echols@enron.com'
p123
sg12
I2234774
sg13
g5
sg14
g5
sg15
g5
sg16
g5
sg17
I53775
sg18
g5
sg19
F0.2234
sg21
I200000
sg22
I1008941
sg23
g5
sg24
F0.5961
sg25
g5
sg26
g20
sg27
I407503
sg28
I182245
sg29
I2692324
sg30
I601438
ssS'MENDELSOHN JOHN'
p124
(dp125
g3
g5
sg4
g5
sg6
g20
sg7
I148
sg8
I00
sg9
I-103750
sg10
g5
sg12
g5
sg13
g5
sg14
g5
sg15
g5
sg16
g5
sg17
g5
sg18
I103750
sg19
g20
sg21
g5
sg22
g5
sg23
g5
sg24
g20
sg25
g5
sg26
g20
sg27
g5
sg28
g5
sg29
I148
sg30
g5
ssS'HICKERSON GARY J'
p126
(dp127
g3
I1320
sg4
g5
sg6
F0.037
sg7
I98849
sg8
I00
sg9
g5
sg10
S'gary.hickerson@enron.com'
p128
sg12
I69223
sg13
g5
sg14
I900
sg15
g5
sg16
I27
sg17
I1936
sg18
g5
sg19
g20
sg21
I1700000
sg22
I441096
sg23
I40
sg24
g20
sg25
I1
sg26
F0.0303
sg27
I441096
sg28
I211788
sg29
I2081796
sg30
g5
ssS'CLINE KENNETH W'
p129
(dp130
g3
g5
sg4
g5
sg6
g20
sg7
g5
sg8
I00
sg9
g5
sg10
g5
sg12
g5
sg13
I-472568
sg14
g5
sg15
g5
sg16
g5
sg17
g5
sg18
g5
sg19
g20
sg21
g5
sg22
I189518
sg23
g5
sg24
g20
sg25
g5
sg26
g20
sg27
I662086
sg28
g5
sg29
g5
sg30
g5
ssS'LEWIS RICHARD'
p131
(dp132
g3
I952
sg4
g5
sg6
F0.0
sg7
g5
sg8
I00
sg9
g5
sg10
S'richard.lewis@enron.com'
p133
sg12
g5
sg13
g5
sg14
I739
sg15
g5
sg16
I26
sg17
g5
sg18
g5
sg19
g20
sg21
g5
sg22
I850477
sg23
I10
sg24
F1.0
sg25
I0
sg26
F0.0105
sg27
g5
sg28
g5
sg29
g5
sg30
I850477
ssS'HAYES ROBERT E'
p134
(dp135
g3
I504
sg4
I7961
sg6
F0.0
sg7
g5
sg8
I00
sg9
g5
sg10
S'robert.hayes@enron.com'
p136
sg12
g5
sg13
g5
sg14
I50
sg15
g5
sg16
I12
sg17
g5
sg18
g5
sg19
g20
sg21
g5
sg22
I151418
sg23
I16
sg24
g20
sg25
I0
sg26
F0.0317
sg27
I151418
sg28
g5
sg29
I7961
sg30
g5
ssS'MCCARTY DANNY J'
p137
(dp138
g3
I1433
sg4
g5
sg6
F0.0093
sg7
g5
sg8
I00
sg9
g5
sg10
S'danny.mccarty@enron.com'
p139
sg12
g5
sg13
g5
sg14
I508
sg15
g5
sg16
I215
sg17
g5
sg18
g5
sg19
g20
sg21
g5
sg22
I758931
sg23
I25
sg24
F0.8754
sg25
I2
sg26
F0.0174
sg27
I94556
sg28
g5
sg29
g5
sg30
I664375
ssS'KOPPER MICHAEL J'
p140
(dp141
g3
g5
sg4
g5
sg6
g20
sg7
I118134
sg8
I01
sg9
g5
sg10
S'michael.kopper@enron.com'
p142
sg12
I602671
sg13
g5
sg14
g5
sg15
g5
sg16
g5
sg17
I907502
sg18
g5
sg19
g20
sg21
I800000
sg22
I985032
sg23
g5
sg24
g20
sg25
g5
sg26
g20
sg27
I985032
sg28
I224305
sg29
I2652612
sg30
g5
ssS'LEFF DANIEL P'
p143
(dp144
g3
I2822
sg4
g5
sg6
F0.2222
sg7
g5
sg8
I00
sg9
g5
sg10
S'dan.leff@enron.com'
p145
sg12
I1387399
sg13
g5
sg14
I2672
sg15
g5
sg16
I63
sg17
I3083
sg18
g5
sg19
g20
sg21
I1000000
sg22
I360528
sg23
I67
sg24
g20
sg25
I14
sg26
F0.0237
sg27
I360528
sg28
I273746
sg29
I2664228
sg30
g5
ssS'LAVORATO JOHN J'
p146
(dp147
g3
I7259
sg4
g5
sg6
F0.159
sg7
I49537
sg8
I00
sg9
g5
sg10
S'john.lavorato@enron.com'
p148
sg12
I2035380
sg13
g5
sg14
I3962
sg15
g5
sg16
I2585
sg17
I1552
sg18
g5
sg19
F0.3989
sg21
I8000000
sg22
I5167144
sg23
I528
sg24
F0.8049
sg25
I411
sg26
F0.0727
sg27
I1008149
sg28
I339288
sg29
I10425757
sg30
I4158995
ssS'BERBERIAN DAVID'
p149
(dp150
g3
g5
sg4
g5
sg6
g20
sg7
I11892
sg8
I00
sg9
g5
sg10
S'david.berberian@enron.com'
p151
sg12
g5
sg13
g5
sg14
g5
sg15
g5
sg16
g5
sg17
g5
sg18
g5
sg19
F7.1098
sg21
g5
sg22
I2493616
sg23
g5
sg24
F0.6514
sg25
g5
sg26
g20
sg27
I869220
sg28
I216582
sg29
I228474
sg30
I1624396
ssS'DETMERING TIMOTHY J'
p152
(dp153
g3
g5
sg4
I875307
sg6
g20
sg7
I52255
sg8
I00
sg9
I-775241
sg10
S'timothy.detmering@enron.com'
p154
sg12
I415657
sg13
I-315068
sg14
g5
sg15
g5
sg16
g5
sg17
I1105
sg18
g5
sg19
F1.6835
sg21
I425000
sg22
I2027865
sg23
g5
sg24
F1.0
sg25
g5
sg26
g20
sg27
I315068
sg28
I210500
sg29
I1204583
sg30
I2027865
ssS'WAKEHAM JOHN'
p155
(dp156
g3
g5
sg4
g5
sg6
g20
sg7
I103773
sg8
I00
sg9
g5
sg10
g5
sg12
g5
sg13
g5
sg14
g5
sg15
g5
sg16
g5
sg17
g5
sg18
I109298
sg19
g20
sg21
g5
sg22
g5
sg23
g5
sg24
g20
sg25
g5
sg26
g20
sg27
g5
sg28
g5
sg29
I213071
sg30
g5
ssS'POWERS WILLIAM'
p157
(dp158
g3
I653
sg4
g5
sg6
F0.0
sg7
g5
sg8
I00
sg9
I-17500
sg10
S'ken.powers@enron.com'
p159
sg12
g5
sg13
g5
sg14
I12
sg15
g5
sg16
I26
sg17
g5
sg18
I17500
sg19
g20
sg21
g5
sg22
g5
sg23
I0
sg24
g20
sg25
I0
sg26
F0.0
sg27
g5
sg28
g5
sg29
g5
sg30
g5
ssS'GOLD JOSEPH'
p160
(dp161
g3
g5
sg4
g5
sg6
g20
sg7
g5
sg8
I00
sg9
g5
sg10
S'joe.gold@enron.com'
p162
sg12
I304805
sg13
g5
sg14
g5
sg15
g5
sg16
g5
sg17
I819288
sg18
g5
sg19
F0.2033
sg21
I750000
sg22
I877611
sg23
g5
sg24
F0.4974
sg25
g5
sg26
g20
sg27
I441096
sg28
I272880
sg29
I2146973
sg30
I436515
ssS'BANNANTINE JAMES M'
p163
(dp164
g3
I566
sg4
g5
sg6
F0.0
sg7
I56301
sg8
I00
sg9
I-5104
sg10
S'james.bannantine@enron.com'
p165
sg12
g5
sg13
I-560222
sg14
I465
sg15
g5
sg16
I29
sg17
I864523
sg18
g5
sg19
F4.4163
sg21
g5
sg22
I5243487
sg23
I39
sg24
F0.7717
sg25
I0
sg26
F0.0689
sg27
I1757552
sg28
I477
sg29
I916197
sg30
I4046157
ssS'DUNCAN JOHN H'
p166
(dp167
g3
g5
sg4
g5
sg6
g20
sg7
g5
sg8
I00
sg9
I-25000
sg10
g5
sg12
g5
sg13
g5
sg14
g5
sg15
g5
sg16
g5
sg17
g5
sg18
I102492
sg19
F4.7973
sg21
g5
sg22
I371750
sg23
g5
sg24
F1.0
sg25
g5
sg26
g20
sg27
g5
sg28
g5
sg29
I77492
sg30
I371750
ssS'SHAPIRO RICHARD S'
p168
(dp169
g3
I15149
sg4
g5
sg6
F0.0535
sg7
I137767
sg8
I00
sg9
g5
sg10
S'richard.shapiro@enron.com'
p170
sg12
g5
sg13
g5
sg14
I4527
sg15
g5
sg16
I1215
sg17
I705
sg18
g5
sg19
F0.5748
sg21
I650000
sg22
I987001
sg23
I74
sg24
F0.6158
sg25
I65
sg26
F0.0049
sg27
I379164
sg28
I269076
sg29
I1057548
sg30
I607837
ssS'SHERRIFF JOHN R'
p171
(dp172
g3
I3187
sg4
g5
sg6
F0.25
sg7
g5
sg8
I00
sg9
g5
sg10
S'john.sherriff@enron.com'
p173
sg12
I554422
sg13
g5
sg14
I2103
sg15
g5
sg16
I92
sg17
I1852186
sg18
g5
sg19
F0.4234
sg21
I1500000
sg22
I3128982
sg23
I28
sg24
F0.5866
sg25
I23
sg26
F0.0088
sg27
I1293424
sg28
I428780
sg29
I4335388
sg30
I1835558
ssS'SHELBY REX'
p174
(dp175
g3
I225
sg4
g5
sg6
F0.359
sg7
I22884
sg8
I01
sg9
I-4167
sg10
S'rex.shelby@enron.com'
p176
sg12
g5
sg13
g5
sg14
I91
sg15
g5
sg16
I39
sg17
I1573324
sg18
g5
sg19
F0.8106
sg21
I200000
sg22
I2493616
sg23
I13
sg24
F0.6514
sg25
I14
sg26
F0.0578
sg27
I869220
sg28
I211844
sg29
I2003885
sg30
I1624396
ssS'LEMAISTRE CHARLES'
p177
(dp178
g3
g5
sg4
g5
sg6
g20
sg7
g5
sg8
I00
sg9
I-25000
sg10
g5
sg12
g5
sg13
g5
sg14
g5
sg15
g5
sg16
g5
sg17
g5
sg18
I112492
sg19
F4.719
sg21
g5
sg22
I412878
sg23
g5
sg24
F1.0
sg25
g5
sg26
g20
sg27
g5
sg28
g5
sg29
I87492
sg30
I412878
ssS'DEFFNER JOSEPH M'
p179
(dp180
g3
I714
sg4
g5
sg6
F0.0541
sg7
I41626
sg8
I00
sg9
g5
sg10
S'joseph.deffner@enron.com'
p181
sg12
I335349
sg13
g5
sg14
I552
sg15
g5
sg16
I74
sg17
I25553
sg18
g5
sg19
F0.0144
sg21
I600000
sg22
I159211
sg23
I115
sg24
F0.1092
sg25
I4
sg26
F0.1611
sg27
I141833
sg28
I206121
sg29
I1208649
sg30
I17378
ssS'KISHKILL JOSEPH G'
p182
(dp183
g3
g5
sg4
g5
sg6
g20
sg7
I116335
sg8
I00
sg9
I-51042
sg10
S'joe.kishkill@enron.com'
p184
sg12
g5
sg13
g5
sg14
g5
sg15
g5
sg16
g5
sg17
I465357
sg18
g5
sg19
g20
sg21
g5
sg22
I1034346
sg23
g5
sg24
g20
sg25
g5
sg26
g20
sg27
I1034346
sg28
I174246
sg29
I704896
sg30
g5
ssS'WHALLEY LAWRENCE G'
p185
(dp186
g3
I6019
sg4
g5
sg6
F0.0432
sg7
I57838
sg8
I00
sg9
g5
sg10
S'greg.whalley@enron.com'
p187
sg12
I808346
sg13
g5
sg14
I3920
sg15
g5
sg16
I556
sg17
I301026
sg18
g5
sg19
F0.7019
sg21
I3000000
sg22
I6079137
sg23
I186
sg24
F0.54
sg25
I24
sg26
F0.0309
sg27
I2796177
sg28
I510364
sg29
I4677574
sg30
I3282960
ssS'MCCONNELL MICHAEL S'
p188
(dp189
g3
I3329
sg4
g5
sg6
F0.0708
sg7
I81364
sg8
I00
sg9
g5
sg10
S'mike.mcconnell@enron.com'
p190
sg12
I554422
sg13
g5
sg14
I2189
sg15
g5
sg16
I2742
sg17
I540
sg18
g5
sg19
F0.7724
sg21
I1100000
sg22
I3101279
sg23
I92
sg24
F0.5233
sg25
I194
sg26
F0.0276
sg27
I1478269
sg28
I365038
sg29
I2101364
sg30
I1623010
ssS'PIRO JIM'
p191
(dp192
g3
I58
sg4
g5
sg6
F0.0625
sg7
g5
sg8
I00
sg9
g5
sg10
S'jim.piro@enron.com'
p193
sg12
g5
sg13
g5
sg14
I3
sg15
g5
sg16
I16
sg17
g5
sg18
g5
sg19
g20
sg21
g5
sg22
I47304
sg23
I0
sg24
g20
sg25
I1
sg26
F0.0
sg27
I47304
sg28
g5
sg29
g5
sg30
g5
ssS'DELAINEY DAVID W'
p194
(dp195
g3
I3093
sg4
g5
sg6
F0.1984
sg7
I86174
sg8
I01
sg9
g5
sg10
S'david.delainey@enron.com'
p196
sg12
I1294981
sg13
g5
sg14
I2097
sg15
g5
sg16
I3069
sg17
I1661
sg18
g5
sg19
F0.4825
sg21
I3000000
sg22
I3614261
sg23
I66
sg24
F0.6339
sg25
I609
sg26
F0.0213
sg27
I1323148
sg28
I365163
sg29
I4747979
sg30
I2291113
ssS'SULLIVAN-SHAKLOVITZ COLLEEN'
p197
(dp198
g3
g5
sg4
I181993
sg6
g20
sg7
g5
sg8
I00
sg9
g5
sg10
g5
sg12
I554422
sg13
g5
sg14
g5
sg15
g5
sg16
g5
sg17
I162
sg18
g5
sg19
F1.3633
sg21
I100000
sg22
I1362375
sg23
g5
sg24
F1.0
sg25
g5
sg26
g20
sg27
g5
sg28
I162779
sg29
I999356
sg30
I1362375
ssS'WROBEL BRUCE'
p199
(dp200
g3
g5
sg4
g5
sg6
g20
sg7
g5
sg8
I00
sg9
g5
sg10
g5
sg12
g5
sg13
g5
sg14
g5
sg15
g5
sg16
g5
sg17
g5
sg18
g5
sg19
g20
sg21
g5
sg22
I139130
sg23
g5
sg24
F1.0
sg25
g5
sg26
g20
sg27
g5
sg28
g5
sg29
g5
sg30
I139130
ssS'LINDHOLM TOD A'
p201
(dp202
g3
g5
sg4
I204075
sg6
g20
sg7
I57727
sg8
I00
sg9
g5
sg10
S'tod.lindholm@enron.com'
p203
sg12
I175000
sg13
g5
sg14
g5
sg15
g5
sg16
g5
sg17
I2630
sg18
g5
sg19
F2.9106
sg21
I200000
sg22
I3064208
sg23
g5
sg24
F0.832
sg25
g5
sg26
g20
sg27
I514847
sg28
I236457
sg29
I875889
sg30
I2549361
ssS'MEYER JEROME J'
p204
(dp205
g3
g5
sg4
g5
sg6
g20
sg7
I2151
sg8
I00
sg9
I-38346
sg10
g5
sg12
g5
sg13
g5
sg14
g5
sg15
g5
sg16
g5
sg17
g5
sg18
I38346
sg19
g20
sg21
g5
sg22
g5
sg23
g5
sg24
g20
sg25
g5
sg26
g20
sg27
g5
sg28
g5
sg29
I2151
sg30
g5
ssS'LAY KENNETH L'
p206
(dp207
g3
I4273
sg4
I202911
sg6
F0.4444
sg7
I99832
sg8
I01
sg9
I-300000
sg10
S'kenneth.lay@enron.com'
p208
sg12
I3600000
sg13
g5
sg14
I2411
sg15
I81525000
sg16
I36
sg17
I10359729
sg18
g5
sg19
F0.3317
sg21
I7000000
sg22
I49110078
sg23
I123
sg24
F0.6994
sg25
I16
sg26
F0.0288
sg27
I14761694
sg28
I1072321
sg29
I103559793
sg30
I34348384
ssS'BUTTS ROBERT H'
p209
(dp210
g3
g5
sg4
g5
sg6
g20
sg7
I9410
sg8
I00
sg9
I-75000
sg10
S'bob.butts@enron.com'
p211
sg12
I175000
sg13
g5
sg14
g5
sg15
g5
sg16
g5
sg17
I150656
sg18
g5
sg19
g20
sg21
I750000
sg22
I417619
sg23
g5
sg24
g20
sg25
g5
sg26
g20
sg27
I417619
sg28
I261516
sg29
I1271582
sg30
g5
ssS'OLSON CINDY K'
p212
(dp213
g3
I1184
sg4
I77716
sg6
F0.2885
sg7
I63791
sg8
I00
sg9
g5
sg10
S'cindy.olson@enron.com'
p214
sg12
I100000
sg13
g5
sg14
I856
sg15
g5
sg16
I52
sg17
I972
sg18
g5
sg19
F1.2387
sg21
I750000
sg22
I2606763
sg23
I20
sg24
F0.628
sg25
I15
sg26
F0.0169
sg27
I969729
sg28
I329078
sg29
I1321557
sg30
I1637034
ssS'MCDONALD REBECCA'
p215
(dp216
g3
I894
sg4
g5
sg6
F0.0769
sg7
g5
sg8
I00
sg9
g5
sg10
S'rebecca.mcdonald@enron.com'
p217
sg12
g5
sg13
g5
sg14
I720
sg15
g5
sg16
I13
sg17
g5
sg18
g5
sg19
g20
sg21
g5
sg22
I1691366
sg23
I54
sg24
F0.4477
sg25
I1
sg26
F0.0604
sg27
I934065
sg28
g5
sg29
g5
sg30
I757301
ssS'CUMBERLAND MICHAEL S'
p218
(dp219
g3
g5
sg4
g5
sg6
g20
sg7
I22344
sg8
I00
sg9
g5
sg10
g5
sg12
I275000
sg13
g5
sg14
g5
sg15
g5
sg16
g5
sg17
I713
sg18
g5
sg19
g20
sg21
I325000
sg22
I207940
sg23
g5
sg24
g20
sg25
g5
sg26
g20
sg27
I207940
sg28
I184899
sg29
I807956
sg30
g5
ssS'GAHN ROBERT S'
p220
(dp221
g3
g5
sg4
I73122
sg6
g20
sg7
I50080
sg8
I00
sg9
I-1042
sg10
g5
sg12
g5
sg13
g5
sg14
g5
sg15
g5
sg16
g5
sg17
I76547
sg18
g5
sg19
F0.0924
sg21
I509870
sg22
I318607
sg23
g5
sg24
F0.2613
sg25
g5
sg26
g20
sg27
I235370
sg28
I192008
sg29
I900585
sg30
I83237
ssS'MCCLELLAN GEORGE'
p222
(dp223
g3
I1744
sg4
g5
sg6
F0.0
sg7
I228763
sg8
I00
sg9
I-125000
sg10
S'george.mcclellan@enron.com'
p224
sg12
g5
sg13
g5
sg14
I1469
sg15
g5
sg16
I49
sg17
I51587
sg18
g5
sg19
F0.3843
sg21
I900000
sg22
I947861
sg23
I52
sg24
F0.5346
sg25
I0
sg26
F0.0298
sg27
I441096
sg28
I263413
sg29
I1318763
sg30
I506765
ssS'HERMANN ROBERT J'
p225
(dp226
g3
g5
sg4
g5
sg6
g20
sg7
I48357
sg8
I00
sg9
I-280000
sg10
S'robert.hermann@enron.com'
p227
sg12
I150000
sg13
g5
sg14
g5
sg15
g5
sg16
g5
sg17
I416441
sg18
g5
sg19
F0.1445
sg21
I700000
sg22
I668132
sg23
g5
sg24
F0.2806
sg25
g5
sg26
g20
sg27
I480632
sg28
I262663
sg29
I1297461
sg30
I187500
ssS'SCRIMSHAW MATTHEW'
p228
(dp229
g3
g5
sg4
g5
sg6
g20
sg7
g5
sg8
I00
sg9
g5
sg10
S'matthew.scrimshaw@enron.com'
p230
sg12
g5
sg13
g5
sg14
g5
sg15
g5
sg16
g5
sg17
g5
sg18
g5
sg19
g20
sg21
g5
sg22
I759557
sg23
g5
sg24
F1.0
sg25
g5
sg26
g20
sg27
g5
sg28
g5
sg29
g5
sg30
I759557
ssS'GATHMANN WILLIAM D'
p231
(dp232
g3
g5
sg4
g5
sg6
g20
sg7
g5
sg8
I00
sg9
g5
sg10
g5
sg12
g5
sg13
I-72419
sg14
g5
sg15
g5
sg16
g5
sg17
g5
sg18
g5
sg19
g20
sg21
g5
sg22
I1945360
sg23
g5
sg24
F0.9015
sg25
g5
sg26
g20
sg27
I264013
sg28
g5
sg29
g5
sg30
I1753766
ssS'HAEDICKE MARK E'
p233
(dp234
g3
I4009
sg4
I2157527
sg6
F0.0314
sg7
I76169
sg8
I00
sg9
I-934484
sg10
S'mark.haedicke@enron.com'
p235
sg12
I983346
sg13
I-329825
sg14
I1847
sg15
g5
sg16
I1941
sg17
I52382
sg18
g5
sg19
F0.1577
sg21
I1150000
sg22
I803094
sg23
I180
sg24
F0.758
sg25
I61
sg26
F0.0449
sg27
I524169
sg28
I374125
sg29
I3859065
sg30
I608750
ssS'BOWEN JR RAYMOND M'
p236
(dp237
g3
I1858
sg4
g5
sg6
F0.5556
sg7
I65907
sg8
I01
sg9
I-833
sg10
S'raymond.bowen@enron.com'
p238
sg12
I974293
sg13
g5
sg14
I1593
sg15
g5
sg16
I27
sg17
I1621
sg18
g5
sg19
g20
sg21
I1350000
sg22
I252055
sg23
I140
sg24
g20
sg25
I15
sg26
F0.0753
sg27
I252055
sg28
I278601
sg29
I2669589
sg30
g5
ssS'GILLIS JOHN'
p239
(dp240
g3
g5
sg4
g5
sg6
g20
sg7
g5
sg8
I00
sg9
g5
sg10
g5
sg12
g5
sg13
g5
sg14
g5
sg15
g5
sg16
g5
sg17
g5
sg18
g5
sg19
g20
sg21
g5
sg22
I85641
sg23
g5
sg24
F0.1145
sg25
g5
sg26
g20
sg27
I75838
sg28
g5
sg29
g5
sg30
I9803
ssS'FITZGERALD JAY L'
p241
(dp242
g3
I936
sg4
g5
sg6
F0.5
sg7
I23870
sg8
I00
sg9
g5
sg10
S'jay.fitzgerald@enron.com'
p243
sg12
I556416
sg13
g5
sg14
I723
sg15
g5
sg16
I16
sg17
I285414
sg18
g5
sg19
F0.4696
sg21
I350000
sg22
I1621236
sg23
I1
sg24
F0.4098
sg25
I8
sg26
F0.0011
sg27
I956775
sg28
I199157
sg29
I1414857
sg30
I664461
ssS'MORAN MICHAEL P'
p244
(dp245
g3
I672
sg4
g5
sg6
F0.0
sg7
g5
sg8
I00
sg9
g5
sg10
S'michael.moran@enron.com'
p246
sg12
g5
sg13
g5
sg14
I127
sg15
g5
sg16
I19
sg17
g5
sg18
g5
sg19
g20
sg21
g5
sg22
I221141
sg23
I0
sg24
F0.2692
sg25
I0
sg26
F0.0
sg27
I161602
sg28
g5
sg29
g5
sg30
I59539
ssS'REDMOND BRIAN L'
p247
(dp248
g3
I1671
sg4
g5
sg6
F0.2217
sg7
I14689
sg8
I00
sg9
g5
sg10
S'brian.redmond@enron.com'
p249
sg12
g5
sg13
g5
sg14
I1063
sg15
g5
sg16
I221
sg17
g5
sg18
g5
sg19
F67.3281
sg21
g5
sg22
I7890324
sg23
I204
sg24
F0.9517
sg25
I49
sg26
F0.1221
sg27
I381285
sg28
I96840
sg29
I111529
sg30
I7509039
ssS'BAZELIDES PHILIP J'
p250
(dp251
g3
g5
sg4
I684694
sg6
g20
sg7
g5
sg8
I00
sg9
g5
sg10
g5
sg12
I93750
sg13
g5
sg14
g5
sg15
g5
sg16
g5
sg17
I874
sg18
g5
sg19
F1.8598
sg21
g5
sg22
I1599641
sg23
g5
sg24
F1.0
sg25
g5
sg26
g20
sg27
g5
sg28
I80818
sg29
I860136
sg30
I1599641
ssS'BELDEN TIMOTHY N'
p252
(dp253
g3
I7991
sg4
I2144013
sg6
F0.2231
sg7
I17355
sg8
I01
sg9
I-2334434
sg10
S'tim.belden@enron.com'
p254
sg12
g5
sg13
g5
sg14
I5521
sg15
g5
sg16
I484
sg17
I210698
sg18
g5
sg19
F0.1732
sg21
I5249999
sg22
I1110705
sg23
I228
sg24
F0.8581
sg25
I108
sg26
F0.0285
sg27
I157569
sg28
I213999
sg29
I5501630
sg30
I953136
ssS'DURAN WILLIAM D'
p255
(dp256
g3
I904
sg4
g5
sg6
F0.25
sg7
I25785
sg8
I00
sg9
g5
sg10
S'w.duran@enron.com'
p257
sg12
I1105218
sg13
g5
sg14
I599
sg15
g5
sg16
I12
sg17
I1568
sg18
g5
sg19
F0.6936
sg21
I750000
sg22
I1640910
sg23
I106
sg24
F0.8848
sg25
I3
sg26
F0.1173
sg27
I189041
sg28
I210692
sg29
I2093263
sg30
I1451869
ssS'THORN TERENCE H'
p258
(dp259
g3
I266
sg4
I16586
sg6
F0.0
sg7
I46145
sg8
I00
sg9
g5
sg10
S'terence.thorn@enron.com'
p260
sg12
I200000
sg13
g5
sg14
I73
sg15
g5
sg16
I41
sg17
I426629
sg18
g5
sg19
F4.885
sg21
g5
sg22
I4817796
sg23
I0
sg24
F0.9242
sg25
I0
sg26
F0.0
sg27
I365320
sg28
I222093
sg29
I911453
sg30
I4452476
ssS'FASTOW ANDREW S'
p261
(dp262
g3
g5
sg4
g5
sg6
g20
sg7
I55921
sg8
I01
sg9
I-1386055
sg10
S'andrew.fastow@enron.com'
p263
sg12
I1736055
sg13
g5
sg14
g5
sg15
g5
sg16
g5
sg17
I277464
sg18
g5
sg19
g20
sg21
I1300000
sg22
I1794412
sg23
g5
sg24
g20
sg25
g5
sg26
g20
sg27
I1794412
sg28
I440698
sg29
I2424083
sg30
g5
ssS'FOY JOE'
p264
(dp265
g3
I57
sg4
I181755
sg6
F0.0
sg7
g5
sg8
I00
sg9
g5
sg10
S'tracy.foy@enron.com'
p266
sg12
g5
sg13
g5
sg14
I2
sg15
g5
sg16
I13
sg17
g5
sg18
g5
sg19
F1.8895
sg21
g5
sg22
I343434
sg23
I0
sg24
F1.0
sg25
I0
sg26
F0.0
sg27
g5
sg28
g5
sg29
I181755
sg30
I343434
ssS'CALGER CHRISTOPHER F'
p267
(dp268
g3
I2598
sg4
g5
sg6
F0.1736
sg7
I35818
sg8
I01
sg9
I-262500
sg10
S'christopher.calger@enron.com'
p269
sg12
I375304
sg13
g5
sg14
I2188
sg15
g5
sg16
I144
sg17
I486
sg18
g5
sg19
g20
sg21
I1250000
sg22
I126027
sg23
I199
sg24
g20
sg25
I25
sg26
F0.0766
sg27
I126027
sg28
I240189
sg29
I1639297
sg30
g5
ssS'RICE KENNETH D'
p270
(dp271
g3
I905
sg4
g5
sg6
F0.2222
sg7
I46950
sg8
I01
sg9
I-3504386
sg10
S'ken.rice@enron.com'
p272
sg12
I1617011
sg13
g5
sg14
I864
sg15
g5
sg16
I18
sg17
I174839
sg18
g5
sg19
F39.1925
sg21
I1750000
sg22
I22542539
sg23
I42
sg24
F0.8781
sg25
I4
sg26
F0.0464
sg27
I2748364
sg28
I420636
sg29
I505050
sg30
I19794175
ssS'KAMINSKI WINCENTY J'
p273
(dp274
g3
I4607
sg4
g5
sg6
F0.0119
sg7
I83585
sg8
I00
sg9
g5
sg10
S'vince.kaminski@enron.com'
p275
sg12
I323466
sg13
g5
sg14
I583
sg15
g5
sg16
I14368
sg17
I4669
sg18
g5
sg19
F0.7821
sg21
I400000
sg22
I976037
sg23
I41
sg24
F0.8709
sg25
I171
sg26
F0.0089
sg27
I126027
sg28
I275101
sg29
I1086821
sg30
I850010
ssS'COX DAVID'
p276
(dp277
g3
I102
sg4
g5
sg6
F0.1212
sg7
I27861
sg8
I00
sg9
I-41250
sg10
S'chip.cox@enron.com'
p278
sg12
g5
sg13
g5
sg14
I71
sg15
g5
sg16
I33
sg17
I494
sg18
g5
sg19
F0.1067
sg21
I800000
sg22
I495633
sg23
I0
sg24
F0.2372
sg25
I4
sg26
F0.0
sg27
I378082
sg28
I314288
sg29
I1101393
sg30
I117551
ssS'OVERDYKE JR JERE C'
p279
(dp280
g3
g5
sg4
g5
sg6
g20
sg7
I18834
sg8
I00
sg9
g5
sg10
S'jere.overdyke@enron.com'
p281
sg12
I135836
sg13
g5
sg14
g5
sg15
g5
sg16
g5
sg17
I176
sg18
g5
sg19
F21.0843
sg21
g5
sg22
I7307594
sg23
g5
sg24
F0.7207
sg25
g5
sg26
g20
sg27
I2041016
sg28
I94941
sg29
I249787
sg30
I5266578
ssS'PEREIRA PAULO V. FERRAZ'
p282
(dp283
g3
g5
sg4
g5
sg6
g20
sg7
I27942
sg8
I00
sg9
I-101250
sg10
g5
sg12
g5
sg13
g5
sg14
g5
sg15
g5
sg16
g5
sg17
g5
sg18
I101250
sg19
g20
sg21
g5
sg22
g5
sg23
g5
sg24
g20
sg25
g5
sg26
g20
sg27
g5
sg28
g5
sg29
I27942
sg30
g5
ssS'STABLER FRANK'
p284
(dp285
g3
g5
sg4
g5
sg6
g20
sg7
I16514
sg8
I00
sg9
g5
sg10
S'frank.stabler@enron.com'
p286
sg12
g5
sg13
g5
sg14
g5
sg15
g5
sg16
g5
sg17
I356071
sg18
g5
sg19
g20
sg21
I500000
sg22
I511734
sg23
g5
sg24
g20
sg25
g5
sg26
g20
sg27
I511734
sg28
I239502
sg29
I1112087
sg30
g5
ssS'SKILLING JEFFREY K'
p287
(dp288
g3
I3627
sg4
g5
sg6
F0.2778
sg7
I29336
sg8
I01
sg9
g5
sg10
S'jeff.skilling@enron.com'
p289
sg12
I1920000
sg13
g5
sg14
I2042
sg15
g5
sg16
I108
sg17
I22122
sg18
g5
sg19
F2.217
sg21
I5600000
sg22
I26093672
sg23
I88
sg24
F0.7377
sg25
I30
sg26
F0.0243
sg27
I6843672
sg28
I1111258
sg29
I8682716
sg30
I19250000
ssS'BLAKE JR. NORMAN P'
p290
(dp291
g3
g5
sg4
g5
sg6
g20
sg7
I1279
sg8
I00
sg9
I-113784
sg10
g5
sg12
g5
sg13
g5
sg14
g5
sg15
g5
sg16
g5
sg17
g5
sg18
I113784
sg19
g20
sg21
g5
sg22
g5
sg23
g5
sg24
g20
sg25
g5
sg26
g20
sg27
g5
sg28
g5
sg29
I1279
sg30
g5
ssS'SHERRICK JEFFREY B'
p292
(dp293
g3
I613
sg4
g5
sg6
F0.72
sg7
g5
sg8
I00
sg9
g5
sg10
S'jeffrey.sherrick@enron.com'
p294
sg12
g5
sg13
g5
sg14
I583
sg15
g5
sg16
I25
sg17
g5
sg18
g5
sg19
g20
sg21
g5
sg22
I1832468
sg23
I39
sg24
F0.7784
sg25
I18
sg26
F0.0636
sg27
I405999
sg28
g5
sg29
g5
sg30
I1426469
ssS'PRENTICE JAMES'
p295
(dp296
g3
g5
sg4
I564348
sg6
g20
sg7
g5
sg8
I00
sg9
g5
sg10
S'james.prentice@enron.com'
p297
sg12
g5
sg13
g5
sg14
g5
sg15
g5
sg16
g5
sg17
g5
sg18
g5
sg19
F1.5704
sg21
g5
sg22
I1095040
sg23
g5
sg24
F0.8093
sg25
g5
sg26
g20
sg27
I208809
sg28
g5
sg29
I564348
sg30
I886231
ssS'GRAY RODNEY'
p298
(dp299
g3
g5
sg4
I93585
sg6
g20
sg7
g5
sg8
I00
sg9
g5
sg10
g5
sg12
I365625
sg13
g5
sg14
g5
sg15
g5
sg16
g5
sg17
I680833
sg18
g5
sg19
g20
sg21
g5
sg22
g5
sg23
g5
sg24
g20
sg25
g5
sg26
g20
sg27
g5
sg28
I6615
sg29
I1146658
sg30
g5
ssS'PICKERING MARK R'
p300
(dp301
g3
I898
sg4
g5
sg6
F0.0
sg7
I31653
sg8
I00
sg9
g5
sg10
S'mark.pickering@enron.com'
p302
sg12
g5
sg13
g5
sg14
I728
sg15
I400000
sg16
I67
sg17
g5
sg18
g5
sg19
F0.0208
sg21
I300000
sg22
I28798
sg23
I7
sg24
F1.0
sg25
I0
sg26
F0.0078
sg27
g5
sg28
I655037
sg29
I1386690
sg30
I28798
ssS'THE TRAVEL AGENCY IN THE PARK'
p303
(dp304
g3
g5
sg4
g5
sg6
g20
sg7
g5
sg8
I00
sg9
g5
sg10
g5
sg12
g5
sg13
g5
sg14
g5
sg15
g5
sg16
g5
sg17
I362096
sg18
g5
sg19
g20
sg21
g5
sg22
g5
sg23
g5
sg24
g20
sg25
g5
sg26
g20
sg27
g5
sg28
g5
sg29
I362096
sg30
g5
ssS'NOLES JAMES L'
p305
(dp306
g3
g5
sg4
I774401
sg6
g20
sg7
g5
sg8
I00
sg9
g5
sg10
g5
sg12
g5
sg13
I-94556
sg14
g5
sg15
g5
sg16
g5
sg17
g5
sg18
g5
sg19
g20
sg21
g5
sg22
I368705
sg23
g5
sg24
g20
sg25
g5
sg26
g20
sg27
I463261
sg28
g5
sg29
I774401
sg30
g5
ssS'KEAN STEVEN J'
p307
(dp308
g3
I12754
sg4
g5
sg6
F0.0573
sg7
I41953
sg8
I00
sg9
g5
sg10
S'steven.kean@enron.com'
p309
sg12
I300000
sg13
g5
sg14
I3639
sg15
g5
sg16
I6759
sg17
I1231
sg18
g5
sg19
F1.1571
sg21
I1000000
sg22
I6153642
sg23
I140
sg24
F0.3286
sg25
I387
sg26
F0.011
sg27
I4131594
sg28
I404338
sg29
I1747522
sg30
I2022048
ssS'FOWLER PEGGY'
p310
(dp311
g3
I517
sg4
g5
sg6
F0.0
sg7
g5
sg8
I00
sg9
g5
sg10
S'kulvinder.fowler@enron.com'
p312
sg12
g5
sg13
g5
sg14
I10
sg15
g5
sg16
I36
sg17
g5
sg18
g5
sg19
g20
sg21
g5
sg22
I1884748
sg23
I0
sg24
F0.7028
sg25
I0
sg26
F0.0
sg27
I560170
sg28
g5
sg29
g5
sg30
I1324578
ssS'WASAFF GEORGE'
p313
(dp314
g3
I400
sg4
I831299
sg6
F0.2333
sg7
g5
sg8
I00
sg9
I-583325
sg10
S'george.wasaff@enron.com'
p315
sg12
I200000
sg13
g5
sg14
I337
sg15
g5
sg16
I30
sg17
I1425
sg18
g5
sg19
F1.6128
sg21
I325000
sg22
I2056427
sg23
I22
sg24
F0.8112
sg25
I7
sg26
F0.055
sg27
I388167
sg28
I259996
sg29
I1034395
sg30
I1668260
ssS'WHITE JR THOMAS E'
p316
(dp317
g3
g5
sg4
g5
sg6
g20
sg7
I81353
sg8
I00
sg9
g5
sg10
S'thomas.white@enron.com'
p318
sg12
g5
sg13
g5
sg14
g5
sg15
g5
sg16
g5
sg17
I1085463
sg18
g5
sg19
F0.6705
sg21
I450000
sg22
I15144123
sg23
g5
sg24
F0.0856
sg25
g5
sg26
g20
sg27
I13847074
sg28
I317543
sg29
I1934359
sg30
I1297049
ssS'CHRISTODOULOU DIOMEDES'
p319
(dp320
g3
g5
sg4
g5
sg6
g20
sg7
g5
sg8
I00
sg9
g5
sg10
S'diomedes.christodoulou@enron.com'
p321
sg12
g5
sg13
g5
sg14
g5
sg15
g5
sg16
g5
sg17
g5
sg18
g5
sg19
g20
sg21
g5
sg22
I6077885
sg23
g5
sg24
F0.8436
sg25
g5
sg26
g20
sg27
I950730
sg28
g5
sg29
g5
sg30
I5127155
ssS'ALLEN PHILLIP K'
p322
(dp323
g3
I2902
sg4
I2869717
sg6
F0.0296
sg7
I13868
sg8
I00
sg9
I-3081055
sg10
S'phillip.allen@enron.com'
p324
sg12
I304805
sg13
I-126027
sg14
I1407
sg15
g5
sg16
I2195
sg17
I152
sg18
g5
sg19
F0.3857
sg21
I4175000
sg22
I1729541
sg23
I47
sg24
F1.0
sg25
I65
sg26
F0.0162
sg27
I126027
sg28
I201955
sg29
I4484442
sg30
I1729541
ssS'SHARP VICTORIA T'
p325
(dp326
g3
I3136
sg4
I187469
sg6
F0.0441
sg7
I116337
sg8
I00
sg9
g5
sg10
S'vicki.sharp@enron.com'
p327
sg12
I422158
sg13
g5
sg14
I2477
sg15
g5
sg16
I136
sg17
I2401
sg18
g5
sg19
F0.1783
sg21
I600000
sg22
I494136
sg23
I24
sg24
F0.5688
sg25
I6
sg26
F0.0077
sg27
I213063
sg28
I248146
sg29
I1576511
sg30
I281073
ssS'JAEDICKE ROBERT'
p328
(dp329
g3
g5
sg4
g5
sg6
g20
sg7
g5
sg8
I00
sg9
I-25000
sg10
g5
sg12
g5
sg13
I-44093
sg14
g5
sg15
g5
sg16
g5
sg17
g5
sg18
I108750
sg19
F5.1552
sg21
g5
sg22
I431750
sg23
g5
sg24
F1.0
sg25
g5
sg26
g20
sg27
I44093
sg28
g5
sg29
I83750
sg30
I431750
ssS'WINOKUR JR. HERBERT S'
p330
(dp331
g3
g5
sg4
g5
sg6
g20
sg7
I1413
sg8
I00
sg9
I-25000
sg10
g5
sg12
g5
sg13
g5
sg14
g5
sg15
g5
sg16
g5
sg17
g5
sg18
I108579
sg19
g20
sg21
g5
sg22
g5
sg23
g5
sg24
g20
sg25
g5
sg26
g20
sg27
g5
sg28
g5
sg29
I84992
sg30
g5
ssS'BROWN MICHAEL'
p332
(dp333
g3
I1486
sg4
g5
sg6
F0.0244
sg7
I49288
sg8
I00
sg9
g5
sg10
S'michael.brown@enron.com'
p334
sg12
g5
sg13
g5
sg14
I761
sg15
g5
sg16
I41
sg17
g5
sg18
g5
sg19
g20
sg21
g5
sg22
g5
sg23
I13
sg24
g20
sg25
I1
sg26
F0.0087
sg27
g5
sg28
g5
sg29
I49288
sg30
g5
ssS'BADUM JAMES P'
p335
(dp336
g3
g5
sg4
I178980
sg6
g20
sg7
I3486
sg8
I00
sg9
g5
sg10
g5
sg12
g5
sg13
g5
sg14
g5
sg15
g5
sg16
g5
sg17
g5
sg18
g5
sg19
F1.413
sg21
g5
sg22
I257817
sg23
g5
sg24
F1.0
sg25
g5
sg26
g20
sg27
g5
sg28
g5
sg29
I182466
sg30
I257817
ssS'HUGHES JAMES A'
p337
(dp338
g3
I719
sg4
g5
sg6
F0.1471
sg7
g5
sg8
I00
sg9
g5
sg10
S'james.hughes@enron.com'
p339
sg12
g5
sg13
g5
sg14
I589
sg15
g5
sg16
I34
sg17
g5
sg18
g5
sg19
g20
sg21
g5
sg22
I1118394
sg23
I35
sg24
F0.675
sg25
I5
sg26
F0.0487
sg27
I363428
sg28
g5
sg29
g5
sg30
I754966
ssS'REYNOLDS LAWRENCE'
p340
(dp341
g3
g5
sg4
I51365
sg6
g20
sg7
I8409
sg8
I00
sg9
I-200000
sg10
g5
sg12
I156250
sg13
I-140264
sg14
g5
sg15
g5
sg16
g5
sg17
I202052
sg18
g5
sg19
F10.5474
sg21
I100000
sg22
I4221891
sg23
g5
sg24
F0.9855
sg25
g5
sg26
g20
sg27
I201483
sg28
I76399
sg29
I394475
sg30
I4160672
ssS'DIMICHELE RICHARD G'
p342
(dp343
g3
g5
sg4
g5
sg6
g20
sg7
I35812
sg8
I00
sg9
g5
sg10
S'richard.dimichele@enron.com'
p344
sg12
I694862
sg13
g5
sg14
g5
sg15
g5
sg16
g5
sg17
I374689
sg18
g5
sg19
F3.4591
sg21
I1000000
sg22
I8317782
sg23
g5
sg24
F0.9848
sg25
g5
sg26
g20
sg27
I126027
sg28
I262788
sg29
I2368151
sg30
I8191755
ssS'BHATNAGAR SANJAY'
p345
(dp346
g3
I523
sg4
g5
sg6
F0.0345
sg7
g5
sg8
I00
sg9
g5
sg10
S'sanjay.bhatnagar@enron.com'
p347
sg12
g5
sg13
I15456290
sg14
I463
sg15
g5
sg16
I29
sg17
I137864
sg18
I137864
sg19
F0.1685
sg21
g5
sS'total_stock_value'
p348
S'NaN'
p349
sg23
I0
sg24
g20
sg25
I1
sg26
F0.0
sg27
I-2604490
sg28
g5
sg29
I15456290
sg30
I2604490
ssS'CARTER REBECCA C'
p350
(dp351
g3
I312
sg4
g5
sg6
F0.4667
sg7
g5
sg8
I00
sg9
I-159792
sg10
S'rebecca.carter@enron.com'
p352
sg12
I75000
sg13
I-307301
sg14
I196
sg15
g5
sg16
I15
sg17
I540
sg18
g5
sg19
g20
sg21
I300000
sg22
g5
sg23
I29
sg24
g20
sg25
I7
sg26
F0.0929
sg27
I307301
sg28
I261809
sg29
I477557
sg30
g5
ssS'BUCHANAN HAROLD G'
p353
(dp354
g3
I1088
sg4
g5
sg6
F0.0
sg7
I600
sg8
I00
sg9
g5
sg10
S'john.buchanan@enron.com'
p355
sg12
I304805
sg13
g5
sg14
I23
sg15
g5
sg16
I125
sg17
I1215
sg18
g5
sg19
F0.7827
sg21
I500000
sg22
I1014505
sg23
I0
sg24
F0.8137
sg25
I0
sg26
F0.0
sg27
I189041
sg28
I248017
sg29
I1054637
sg30
I825464
ssS'YEAP SOON'
p356
(dp357
g3
g5
sg4
g5
sg6
g20
sg7
I55097
sg8
I00
sg9
g5
sg10
g5
sg12
g5
sg13
g5
sg14
g5
sg15
g5
sg16
g5
sg17
g5
sg18
g5
sg19
F3.4985
sg21
g5
sg22
I192758
sg23
g5
sg24
F1.0
sg25
g5
sg26
g20
sg27
g5
sg28
g5
sg29
I55097
sg30
I192758
ssS'MURRAY JULIA H'
p358
(dp359
g3
I2192
sg4
g5
sg6
F0.0444
sg7
I57580
sg8
I00
sg9
g5
sg10
S'julia.murray@enron.com'
p360
sg12
I125000
sg13
g5
sg14
I395
sg15
g5
sg16
I45
sg17
I330
sg18
g5
sg19
F0.4931
sg21
I400000
sg22
I597461
sg23
I11
sg24
F0.6703
sg25
I2
sg26
F0.005
sg27
I196983
sg28
I229284
sg29
I812194
sg30
I400478
ssS'GARLAND C KEVIN'
p361
(dp362
g3
I209
sg4
g5
sg6
F0.6136
sg7
I48405
sg8
I00
sg9
g5
sg10
S'kevin.garland@enron.com'
p363
sg12
I375304
sg13
g5
sg14
I178
sg15
g5
sg16
I44
sg17
I60814
sg18
g5
sg19
F0.4062
sg21
I850000
sg22
I896153
sg23
I10
sg24
F0.71
sg25
I27
sg26
F0.0478
sg27
I259907
sg28
I231946
sg29
I1566469
sg30
I636246
ssS'DODSON KEITH'
p364
(dp365
g3
I176
sg4
g5
sg6
F0.2143
sg7
I28164
sg8
I00
sg9
g5
sg10
S'keith.dodson@enron.com'
p366
sg12
g5
sg13
g5
sg14
I114
sg15
g5
sg16
I14
sg17
I774
sg18
g5
sg19
g20
sg21
I70000
sg22
g5
sg23
I10
sg24
g20
sg25
I3
sg26
F0.0568
sg27
g5
sg28
I221003
sg29
I319941
sg30
g5
ssS'YEAGER F SCOTT'
p367
(dp368
g3
g5
sg4
g5
sg6
g20
sg7
I53947
sg8
I01
sg9
g5
sg10
S'scott.yeager@enron.com'
p369
sg12
g5
sg13
g5
sg14
g5
sg15
g5
sg16
g5
sg17
I147950
sg18
g5
sg19
F23.0601
sg21
g5
sg22
I11884758
sg23
g5
sg24
F0.6991
sg25
g5
sg26
g20
sg27
I3576206
sg28
I158403
sg29
I360300
sg30
I8308552
ssS'HIRKO JOSEPH'
p370
(dp371
g3
g5
sg4
I10259
sg6
g20
sg7
I77978
sg8
I01
sg9
g5
sg10
S'joe.hirko@enron.com'
p372
sg12
g5
sg13
g5
sg14
g5
sg15
g5
sg16
g5
sg17
I2856
sg18
g5
sg19
F337.7434
sg21
g5
sg22
I30766064
sg23
g5
sg24
F1.0
sg25
g5
sg26
g20
sg27
g5
sg28
g5
sg29
I91093
sg30
I30766064
ssS'DIETRICH JANET R'
p373
(dp374
g3
I2572
sg4
g5
sg6
F0.2222
sg7
I3475
sg8
I00
sg9
g5
sg10
S'janet.dietrich@enron.com'
p375
sg12
I556416
sg13
g5
sg14
I1902
sg15
g5
sg16
I63
sg17
I473
sg18
g5
sg19
F1.0989
sg21
I600000
sg22
I1865087
sg23
I305
sg24
F0.8311
sg25
I14
sg26
F0.1186
sg27
I315068
sg28
I250100
sg29
I1410464
sg30
I1550019
ssS'DERRICK JR. JAMES V'
p376
(dp377
g3
I2181
sg4
g5
sg6
F0.022
sg7
I51124
sg8
I00
sg9
I-1284000
sg10
S'james.derrick@enron.com'
p378
sg12
I484000
sg13
I-1787380
sg14
I1401
sg15
g5
sg16
I909
sg17
I7482
sg18
g5
sg19
F16.0294
sg21
I800000
sg22
I8831913
sg23
I64
sg24
F1.0
sg25
I20
sg26
F0.0293
sg27
I1787380
sg28
I492375
sg29
I550981
sg30
I8831913
ssS'FREVERT MARK A'
p379
(dp380
g3
I3275
sg4
I6426990
sg6
F0.2857
sg7
I86987
sg8
I00
sg9
I-3367011
sg10
S'mark.frevert@enron.com'
p381
sg12
I1617011
sg13
g5
sg14
I2979
sg15
I2000000
sg16
I21
sg17
I7427621
sg18
g5
sg19
F0.6048
sg21
I2000000
sg22
I14622185
sg23
I242
sg24
F0.7135
sg25
I6
sg26
F0.0739
sg27
I4188667
sg28
I1060932
sg29
I17252530
sg30
I10433518
ssS'PAI LOU L'
p382
(dp383
g3
g5
sg4
g5
sg6
g20
sg7
I32047
sg8
I00
sg9
g5
sg10
S'lou.pai@enron.com'
p384
sg12
g5
sg13
g5
sg14
g5
sg15
g5
sg16
g5
sg17
I1829457
sg18
g5
sg19
F4.9191
sg21
I1000000
sg22
I23817930
sg23
g5
sg24
F0.6451
sg25
g5
sg26
g20
sg27
I8453763
sg28
I261879
sg29
I3123383
sg30
I15364167
ssS'BAY FRANKLIN R'
p385
(dp386
g3
g5
sg4
I260455
sg6
g20
sg7
I129142
sg8
I00
sg9
I-201641
sg10
S'frank.bay@enron.com'
p387
sg12
g5
sg13
I-82782
sg14
g5
sg15
g5
sg16
g5
sg17
I69
sg18
g5
sg19
g20
sg21
I400000
sg22
I63014
sg23
g5
sg24
g20
sg25
g5
sg26
g20
sg27
I145796
sg28
I239671
sg29
I827696
sg30
g5
ssS'HAYSLETT RODERICK J'
p388
(dp389
g3
I2649
sg4
g5
sg6
F0.0358
sg7
g5
sg8
I00
sg9
g5
sg10
S'rod.hayslett@enron.com'
p390
sg12
g5
sg13
g5
sg14
I571
sg15
g5
sg16
I1061
sg17
g5
sg18
g5
sg19
g20
sg21
g5
sg22
I346663
sg23
I35
sg24
g20
sg25
I38
sg26
F0.0132
sg27
I346663
sg28
g5
sg29
g5
sg30
g5
ssS'FUGH JOHN L'
p391
(dp392
g3
g5
sg4
I50591
sg6
g20
sg7
g5
sg8
I00
sg9
g5
sg10
g5
sg12
g5
sg13
g5
sg14
g5
sg15
g5
sg16
g5
sg17
g5
sg18
g5
sg19
F3.4864
sg21
g5
sg22
I176378
sg23
g5
sg24
F1.0
sg25
g5
sg26
g20
sg27
g5
sg28
g5
sg29
I50591
sg30
I176378
ssS'FALLON JAMES B'
p393
(dp394
g3
I1755
sg4
g5
sg6
F0.4933
sg7
I95924
sg8
I00
sg9
g5
sg10
S'jim.fallon@enron.com'
p395
sg12
I374347
sg13
g5
sg14
I1604
sg15
g5
sg16
I75
sg17
I401481
sg18
g5
sg19
F0.2558
sg21
I2500000
sg22
I2332399
sg23
I42
sg24
F0.4031
sg25
I37
sg26
F0.0239
sg27
I1392142
sg28
I304588
sg29
I3676340
sg30
I940257
ssS'KOENIG MARK E'
p396
(dp397
g3
I2374
sg4
g5
sg6
F0.2459
sg7
I127017
sg8
I01
sg9
g5
sg10
S'mark.koenig@enron.com'
p398
sg12
I300000
sg13
g5
sg14
I2271
sg15
g5
sg16
I61
sg17
I150458
sg18
g5
sg19
F0.4232
sg21
I700000
sg22
I1920055
sg23
I53
sg24
F0.3499
sg25
I15
sg26
F0.0223
sg27
I1248318
sg28
I309946
sg29
I1587421
sg30
I671737
ssS'SAVAGE FRANK'
p399
(dp400
g3
g5
sg4
g5
sg6
g20
sg7
g5
sg8
I00
sg9
I-121284
sg10
g5
sg12
g5
sg13
g5
sg14
g5
sg15
g5
sg16
g5
sg17
g5
sg18
I125034
sg19
g20
sg21
g5
sg22
g5
sg23
g5
sg24
g20
sg25
g5
sg26
g20
sg27
g5
sg28
g5
sg29
I3750
sg30
g5
ssS'IZZO LAWRENCE L'
p401
(dp402
g3
I496
sg4
g5
sg6
F0.2632
sg7
I28093
sg8
I00
sg9
g5
sg10
S'larry.izzo@enron.com'
p403
sg12
I312500
sg13
g5
sg14
I437
sg15
g5
sg16
I19
sg17
I1553729
sg18
g5
sg19
F1.0937
sg21
g5
sg22
I5819980
sg23
I28
sg24
F0.372
sg25
I5
sg26
F0.0565
sg27
I3654808
sg28
I85274
sg29
I1979596
sg30
I2165172
ssS'TILNEY ELIZABETH A'
p404
(dp405
g3
I460
sg4
g5
sg6
F0.5789
sg7
g5
sg8
I00
sg9
I-575000
sg10
S'elizabeth.tilney@enron.com'
p406
sg12
I275000
sg13
g5
sg14
I379
sg15
g5
sg16
I19
sg17
I152055
sg18
g5
sg19
F1.4804
sg21
I300000
sg22
I1168042
sg23
I10
sg24
F0.5062
sg25
I11
sg26
F0.0217
sg27
I576792
sg28
I247338
sg29
I399393
sg30
I591250
ssS'MARTIN AMANDA K'
p407
(dp408
g3
I1522
sg4
I85430
sg6
F0.0
sg7
I8211
sg8
I00
sg9
g5
sg10
S'a..martin@enron.com'
p409
sg12
I5145434
sg13
g5
sg14
I477
sg15
g5
sg16
I230
sg17
I2818454
sg18
g5
sg19
F0.2463
sg21
g5
sg22
I2070306
sg23
I8
sg24
F1.0
sg25
I0
sg26
F0.0053
sg27
g5
sg28
I349487
sg29
I8407016
sg30
I2070306
ssS'BUY RICHARD B'
p410
(dp411
g3
I3523
sg4
I649584
sg6
F0.0674
sg7
g5
sg8
I00
sg9
I-694862
sg10
S'rick.buy@enron.com'
p412
sg12
I769862
sg13
g5
sg14
I2333
sg15
g5
sg16
I1053
sg17
I400572
sg18
g5
sg19
F1.0794
sg21
I900000
sg22
I3444470
sg23
I156
sg24
F0.7382
sg25
I71
sg26
F0.0443
sg27
I901657
sg28
I330546
sg29
I2355702
sg30
I2542813
ssS'GRAMM WENDY L'
p413
(dp414
g3
g5
sg4
g5
sg6
g20
sg7
g5
sg8
I00
sg9
g5
sg10
g5
sg12
g5
sg13
g5
sg14
g5
sg15
g5
sg16
g5
sg17
g5
sg18
I119292
sg19
g20
sg21
g5
sg22
g5
sg23
g5
sg24
g20
sg25
g5
sg26
g20
sg27
g5
sg28
g5
sg29
I119292
sg30
g5
ssS'CAUSEY RICHARD A'
p415
(dp416
g3
I1892
sg4
g5
sg6
F0.2449
sg7
I30674
sg8
I01
sg9
I-235000
sg10
S'richard.causey@enron.com'
p417
sg12
I350000
sg13
g5
sg14
I1585
sg15
g5
sg16
I49
sg17
I307895
sg18
g5
sg19
g20
sg21
I1000000
sg22
I2502063
sg23
I58
sg24
g20
sg25
I12
sg26
F0.0307
sg27
I2502063
sg28
I415189
sg29
I1868758
sg30
g5
ssS'TAYLOR MITCHELL S'
p418
(dp419
g3
I533
sg4
I227449
sg6
F0.0
sg7
g5
sg8
I00
sg9
g5
sg10
S'mitchell.taylor@enron.com'
p420
sg12
g5
sg13
g5
sg14
I300
sg15
g5
sg16
I29
sg17
g5
sg18
g5
sg19
F2.9115
sg21
I600000
sg22
I3745048
sg23
I0
sg24
F0.8495
sg25
I0
sg26
F0.0
sg27
I563798
sg28
I265214
sg29
I1092663
sg30
I3181250
ssS'DONAHUE JR JEFFREY M'
p421
(dp422
g3
I865
sg4
g5
sg6
F0.5
sg7
I96268
sg8
I00
sg9
I-300000
sg10
S'jeff.donahue@enron.com'
p423
sg12
g5
sg13
g5
sg14
I772
sg15
g5
sg16
I22
sg17
I891
sg18
g5
sg19
F0.8746
sg21
I800000
sg22
I1080988
sg23
I188
sg24
F0.7085
sg25
I11
sg26
F0.2173
sg27
I315068
sg28
I278601
sg29
I875760
sg30
I765920
ssS'GLISAN JR BEN F'
p424
(dp425
g3
I873
sg4
g5
sg6
F0.375
sg7
I125978
sg8
I01
sg9
g5
sg10
S'ben.glisan@enron.com'
p426
sg12
I71023
sg13
g5
sg14
I874
sg15
g5
sg16
I16
sg17
I200308
sg18
g5
sg19
F0.3024
sg21
I600000
sg22
I778546
sg23
I52
sg24
F0.4942
sg25
I6
sg26
F0.0596
sg27
I393818
sg28
I274975
sg29
I1272284
sg30
I384728
ss.