(lp0
S'poi'
p1
aS'total_payments'
p2
aS'total_stock_value'
p3
aS'exercised_stock_options'
p4
aS'from_poi_to_this_person'
p5
aS'shared_receipt_with_poi'
p6
aS'from_this_person_to_poi'
p7
aS'loan_advances'
p8
aS'deferred_income'
p9
aS'long_term_incentive'
p10
aS'deferral_payments'
p11
aS'restricted_stock_deferred'
p12
aS'director_fees'
p13
aS'ratio_exer_stock_total'
p14
aS'ratio_from_poi_email_received'
p15
aS'ratio_to_poi_email_sent'
p16
a.