(lp0
S'poi'
p1
aS'exercised_stock_options'
p2
aS'total_stock_value'
p3
aS'total_payments'
p4
aS'from_poi_to_this_person'
p5
aS'shared_receipt_with_poi'
p6
aS'from_this_person_to_poi'
p7
aS'ratio_exer_stock_total'
p8
aS'ratio_from_poi_email_received'
p9
aS'ratio_to_poi_email_sent'
p10
a.